(dp1
I0
(lp2
S'0_45'
p3
aS'0_5'
p4
aS'0_2'
p5
aS'0_3'
p6
aS'74_45'
p7
aS'0_39'
p8
aS'0_36'
p9
aS'0_19'
p10
aS'0_34'
p11
aS'0_25'
p12
aS'0_27'
p13
aS'0_31'
p14
aS'0_18'
p15
aS'0_58'
p16
aS'0_48'
p17
aS'0_54'
p18
aS'0_56'
p19
aS'0_43'
p20
aS'0_51'
p21
aS'0_52'
p22
aS'0_40'
p23
asI1
(lp24
S'1_44'
p25
aS'1_45'
p26
aS'1_40'
p27
aS'1_52'
p28
aS'1_50'
p29
aS'1_11'
p30
aS'1_10'
p31
aS'1_1'
p32
aS'1_0'
p33
aS'1_8'
p34
aS'1_26'
p35
aS'26_46'
p36
aS'1_43'
p37
aS'1_31'
p38
aS'1_24'
p39
aS'1_32'
p40
aS'1_22'
p41
aS'1_21'
p42
aS'1_39'
p43
aS'1_38'
p44
aS'1_29'
p45
asI2
(lp46
S'2_59'
p47
aS'2_19'
p48
aS'2_29'
p49
aS'2_26'
p50
aS'2_10'
p51
aS'2_24'
p52
aS'2_14'
p53
aS'2_33'
p54
aS'2_32'
p55
aS'2_21'
p56
aS'2_54'
p57
aS'2_8'
p58
aS'2_1'
p59
aS'2_6'
p60
aS'2_49'
p61
aS'2_13'
p62
aS'2_43'
p63
aS'2_42'
p64
aS'2_52'
p65
aS'2_47'
p66
asI3
(lp67
S'3_46'
p68
aS'3_51'
p69
aS'3_55'
p70
aS'19_1'
p71
aS'3_40'
p72
aS'3_24'
p73
aS'3_36'
p74
aS'3_34'
p75
aS'3_19'
p76
aS'3_32'
p77
aS'3_22'
p78
aS'3_15'
p79
aS'3_42'
p80
aS'3_29'
p81
aS'3_1'
p82
aS'3_0'
p83
aS'3_3'
p84
aS'3_2'
p85
aS'3_7'
p86
aS'3_8'
p87
aS'45_35'
p88
aS'3_20'
p89
asI4
(lp90
S'4_24'
p91
aS'4_41'
p92
aS'4_40'
p93
aS'4_47'
p94
aS'4_46'
p95
aS'4_58'
p96
aS'4_28'
p97
aS'4_53'
p98
aS'4_18'
p99
aS'4_32'
p100
aS'4_26'
p101
aS'4_31'
p102
aS'4_36'
p103
aS'4_11'
p104
aS'4_35'
p105
aS'4_10'
p106
aS'24_53'
p107
aS'4_37'
p108
aS'1_13'
p109
aS'4_39'
p110
aS'4_27'
p111
aS'4_4'
p112
asI5
(lp113
S'5_59'
p114
aS'5_45'
p115
aS'5_32'
p116
aS'23_12'
p117
aS'5_27'
p118
aS'5_47'
p119
aS'5_15'
p120
aS'5_48'
p121
aS'5_49'
p122
aS'5_20'
p123
aS'5_14'
p124
aS'5_26'
p125
aS'5_38'
p126
aS'5_40'
p127
aS'5_41'
p128
aS'5_51'
p129
aS'5_30'
p130
aS'5_55'
p131
aS'5_54'
p132
aS'5_5'
p133
aS'5_52'
p134
asI6
(lp135
S'6_5'
p136
aS'6_6'
p137
aS'6_7'
p138
aS'6_2'
p139
aS'6_30'
p140
aS'6_37'
p141
aS'6_58'
p142
aS'6_16'
p143
aS'6_33'
p144
aS'6_35'
p145
aS'6_52'
p146
aS'6_56'
p147
aS'6_57'
p148
aS'6_54'
p149
aS'6_23'
p150
aS'6_47'
p151
aS'6_46'
p152
aS'6_40'
p153
aS'6_25'
p154
aS'6_24'
p155
asI7
(lp156
S'7_31'
p157
aS'7_23'
p158
aS'7_9'
p159
aS'13_16'
p160
aS'7_5'
p161
aS'7_4'
p162
aS'7_7'
p163
aS'7_6'
p164
aS'7_1'
p165
aS'7_22'
p166
aS'7_56'
p167
aS'7_53'
p168
aS'7_35'
p169
aS'7_28'
p170
aS'7_13'
p171
aS'7_38'
p172
aS'7_59'
p173
aS'7_17'
p174
aS'7_42'
p175
aS'7_40'
p176
aS'7_46'
p177
aS'7_47'
p178
asI8
(lp179
S'8_54'
p180
aS'8_47'
p181
aS'8_43'
p182
aS'8_51'
p183
aS'8_52'
p184
aS'8_46'
p185
aS'8_13'
p186
aS'8_48'
p187
aS'8_6'
p188
aS'8_4'
p189
aS'8_0'
p190
aS'8_41'
p191
aS'8_40'
p192
aS'8_36'
p193
aS'8_37'
p194
aS'8_25'
p195
aS'8_24'
p196
aS'8_26'
p197
aS'8_28'
p198
aS'8_38'
p199
asI9
(lp200
S'9_49'
p201
aS'9_58'
p202
aS'9_57'
p203
aS'9_56'
p204
aS'9_55'
p205
aS'9_51'
p206
aS'9_43'
p207
aS'9_30'
p208
aS'9_39'
p209
aS'9_9'
p210
aS'9_8'
p211
aS'9_6'
p212
aS'9_5'
p213
aS'9_13'
p214
aS'9_38'
p215
aS'9_15'
p216
aS'9_26'
p217
aS'9_27'
p218
aS'9_24'
p219
aS'9_32'
p220
asI10
(lp221
S'10_25'
p222
aS'10_24'
p223
aS'10_27'
p224
aS'10_26'
p225
aS'10_18'
p226
aS'10_19'
p227
aS'10_23'
p228
aS'10_37'
p229
aS'10_15'
p230
aS'10_28'
p231
aS'10_38'
p232
aS'10_6'
p233
aS'10_2'
p234
aS'61_44'
p235
aS'10_51'
p236
aS'10_52'
p237
aS'10_43'
p238
aS'10_42'
p239
aS'10_41'
p240
aS'10_54'
p241
aS'10_48'
p242
asI11
(lp243
S'11_26'
p244
aS'11_11'
p245
aS'11_6'
p246
aS'11_2'
p247
aS'11_1'
p248
aS'11_49'
p249
aS'11_59'
p250
aS'11_57'
p251
aS'11_56'
p252
aS'11_43'
p253
aS'11_53'
p254
aS'11_46'
p255
aS'11_47'
p256
aS'11_33'
p257
aS'11_13'
p258
aS'11_37'
p259
aS'11_36'
p260
aS'11_22'
p261
aS'11_16'
p262
aS'11_20'
p263
asI12
(lp264
S'12_2'
p265
aS'12_3'
p266
aS'12_6'
p267
aS'12_51'
p268
aS'12_19'
p269
aS'12_27'
p270
aS'12_31'
p271
aS'12_32'
p272
aS'12_24'
p273
aS'12_23'
p274
aS'12_39'
p275
aS'56_32'
p276
aS'12_28'
p277
aS'12_56'
p278
aS'12_57'
p279
aS'12_18'
p280
aS'12_55'
p281
aS'12_40'
p282
aS'12_42'
p283
aS'12_11'
p284
aS'12_59'
p285
asI13
(lp286
S'13_9'
p287
aS'13_0'
p288
aS'69_9'
p289
aS'13_6'
p290
aS'13_28'
p291
aS'13_29'
p292
aS'13_13'
p293
aS'22_3'
p294
aS'13_17'
p295
aS'13_16'
p296
aS'13_19'
p297
aS'13_21'
p298
aS'13_26'
p299
aS'13_30'
p300
aS'13_59'
p301
aS'13_58'
p302
aS'13_54'
p303
aS'13_44'
p304
aS'13_45'
p305
aS'13_51'
p306
aS'13_43'
p307
aS'13_40'
p308
asI14
(lp309
S'14_2'
p310
aS'14_21'
p311
aS'14_19'
p312
aS'14_22'
p313
aS'14_52'
p314
aS'14_35'
p315
aS'14_10'
p316
aS'14_28'
p317
aS'14_38'
p318
aS'14_13'
p319
aS'14_58'
p320
aS'14_12'
p321
aS'14_16'
p322
aS'14_54'
p323
aS'14_49'
p324
aS'14_48'
p325
aS'14_33'
p326
aS'14_39'
p327
aS'14_40'
p328
aS'14_57'
p329
asI15
(lp330
S'15_47'
p331
aS'15_17'
p332
aS'15_58'
p333
aS'15_14'
p334
aS'15_12'
p335
aS'15_36'
p336
aS'15_19'
p337
aS'15_38'
p338
aS'15_50'
p339
aS'15_57'
p340
aS'15_30'
p341
aS'15_59'
p342
aS'15_32'
p343
aS'15_40'
p344
aS'15_27'
p345
aS'15_43'
p346
aS'15_1'
p347
aS'15_0'
p348
aS'15_6'
p349
aS'15_4'
p350
aS'66_32'
p351
asI16
(lp352
S'16_52'
p353
aS'16_21'
p354
aS'16_12'
p355
aS'16_39'
p356
aS'16_10'
p357
aS'16_34'
p358
aS'16_40'
p359
aS'16_51'
p360
aS'16_45'
p361
aS'16_31'
p362
aS'16_18'
p363
aS'16_4'
p364
aS'16_5'
p365
aS'16_28'
p366
aS'16_3'
p367
aS'16_38'
p368
aS'16_32'
p369
aS'16_26'
p370
aS'16_27'
p371
aS'9_19'
p372
aS'16_13'
p373
asI17
(lp374
S'17_16'
p375
aS'17_33'
p376
aS'17_14'
p377
aS'17_30'
p378
aS'17_11'
p379
aS'17_12'
p380
aS'17_34'
p381
aS'17_20'
p382
aS'17_8'
p383
aS'17_4'
p384
aS'17_1'
p385
aS'17_0'
p386
aS'17_24'
p387
aS'17_25'
p388
aS'17_26'
p389
aS'17_46'
p390
aS'17_47'
p391
aS'17_22'
p392
aS'17_58'
p393
aS'17_48'
p394
asI18
(lp395
S'18_37'
p396
aS'18_35'
p397
aS'18_33'
p398
aS'18_14'
p399
aS'18_9'
p400
aS'18_6'
p401
aS'18_7'
p402
aS'18_19'
p403
aS'18_58'
p404
aS'18_15'
p405
aS'18_16'
p406
aS'18_56'
p407
aS'18_48'
p408
aS'18_46'
p409
aS'18_52'
p410
aS'18_53'
p411
aS'18_43'
p412
aS'18_42'
p413
aS'18_41'
p414
aS'18_57'
p415
asI19
(lp416
S'19_13'
p417
aS'19_36'
p418
aS'6_0'
p419
aS'19_16'
p420
aS'19_33'
p421
aS'19_47'
p422
aS'19_39'
p423
aS'19_38'
p424
aS'19_29'
p425
aS'19_4'
p426
aS'19_3'
p427
aS'19_1'
p428
aS'19_9'
p429
aS'91_53'
p430
aS'19_15'
p431
aS'19_40'
p432
aS'19_41'
p433
aS'19_54'
p434
aS'19_53'
p435
aS'19_46'
p436
aS'19_50'
p437
aS'19_49'
p438
asI20
(lp439
S'20_21'
p440
aS'20_35'
p441
aS'20_14'
p442
aS'20_13'
p443
aS'16_13'
p444
aS'20_10'
p445
aS'20_19'
p446
aS'20_56'
p447
aS'20_55'
p448
aS'20_22'
p449
aS'20_30'
p450
aS'20_32'
p451
aS'20_26'
p452
aS'20_27'
p453
aS'20_42'
p454
aS'20_3'
p455
aS'20_44'
p456
aS'20_0'
p457
aS'20_5'
p458
aS'20_4'
p459
aS'47_51'
p460
aS'20_9'
p461
asI21
(lp462
S'21_0'
p463
aS'21_32'
p464
aS'21_56'
p465
aS'21_31'
p466
aS'21_36'
p467
aS'21_37'
p468
aS'21_12'
p469
aS'21_13'
p470
aS'21_14'
p471
aS'21_38'
p472
aS'21_17'
p473
aS'21_49'
p474
aS'21_48'
p475
aS'21_58'
p476
aS'21_41'
p477
aS'21_40'
p478
aS'21_47'
p479
aS'21_23'
p480
aS'21_59'
p481
aS'21_22'
p482
asI22
(lp483
S'22_18'
p484
aS'22_32'
p485
aS'22_17'
p486
aS'22_30'
p487
aS'22_11'
p488
aS'22_10'
p489
aS'36_36'
p490
aS'22_43'
p491
aS'22_5'
p492
aS'22_4'
p493
aS'22_7'
p494
aS'22_26'
p495
aS'22_3'
p496
aS'22_24'
p497
aS'22_50'
p498
aS'22_40'
p499
aS'22_54'
p500
aS'22_44'
p501
aS'22_59'
p502
aS'22_28'
p503
aS'22_31'
p504
asI23
(lp505
S'46_13'
p506
aS'23_16'
p507
aS'23_48'
p508
aS'23_14'
p509
aS'23_15'
p510
aS'23_27'
p511
aS'23_34'
p512
aS'23_35'
p513
aS'23_36'
p514
aS'23_12'
p515
aS'23_54'
p516
aS'23_19'
p517
aS'23_5'
p518
aS'23_6'
p519
aS'23_7'
p520
aS'23_22'
p521
aS'23_56'
p522
aS'23_59'
p523
aS'23_18'
p524
aS'23_38'
p525
aS'23_47'
p526
asI24
(lp527
S'72_13'
p528
aS'24_9'
p529
aS'24_47'
p530
aS'24_3'
p531
aS'24_2'
p532
aS'24_48'
p533
aS'24_30'
p534
aS'24_40'
p535
aS'24_42'
p536
aS'24_43'
p537
aS'24_50'
p538
aS'24_39'
p539
aS'24_28'
p540
aS'24_23'
p541
aS'24_13'
p542
aS'24_27'
p543
aS'24_24'
p544
aS'24_10'
p545
aS'24_17'
p546
aS'24_16'
p547
aS'24_32'
p548
asI25
(lp549
S'25_34'
p550
aS'25_35'
p551
aS'25_18'
p552
aS'25_23'
p553
aS'25_22'
p554
aS'25_10'
p555
aS'25_27'
p556
aS'25_12'
p557
aS'25_13'
p558
aS'25_26'
p559
aS'25_2'
p560
aS'25_3'
p561
aS'25_1'
p562
aS'6_3'
p563
aS'25_50'
p564
aS'25_51'
p565
aS'25_45'
p566
aS'25_54'
p567
aS'25_56'
p568
aS'25_57'
p569
aS'25_49'
p570
asI26
(lp571
S'26_1'
p572
aS'26_3'
p573
aS'26_7'
p574
aS'26_43'
p575
aS'26_17'
p576
aS'26_19'
p577
aS'26_22'
p578
aS'26_6'
p579
aS'26_24'
p580
aS'26_26'
p581
aS'26_23'
p582
aS'26_58'
p583
aS'26_48'
p584
aS'26_49'
p585
aS'26_47'
p586
aS'26_44'
p587
aS'26_45'
p588
aS'26_42'
p589
aS'26_50'
p590
aS'26_31'
p591
aS'12_48'
p592
asI27
(lp593
S'27_4'
p594
aS'27_5'
p595
aS'27_6'
p596
aS'27_7'
p597
aS'27_21'
p598
aS'57_10'
p599
aS'27_30'
p600
aS'27_24'
p601
aS'27_23'
p602
aS'27_35'
p603
aS'27_36'
p604
aS'27_49'
p605
aS'36_28'
p606
aS'27_54'
p607
aS'27_55'
p608
aS'27_52'
p609
aS'27_53'
p610
aS'27_12'
p611
aS'27_13'
p612
aS'27_10'
p613
aS'27_16'
p614
aS'27_58'
p615
asI28
(lp616
S'28_42'
p617
aS'28_3'
p618
aS'28_5'
p619
aS'28_33'
p620
aS'28_21'
p621
aS'28_37'
p622
aS'28_36'
p623
aS'28_39'
p624
aS'28_38'
p625
aS'28_15'
p626
aS'28_13'
p627
aS'28_16'
p628
aS'28_58'
p629
aS'20_54'
p630
aS'28_53'
p631
aS'28_51'
p632
aS'28_50'
p633
aS'28_56'
p634
aS'28_55'
p635
aS'28_54'
p636
aS'28_32'
p637
asI29
(lp638
S'29_1'
p639
aS'29_6'
p640
aS'29_5'
p641
aS'29_50'
p642
aS'29_30'
p643
aS'29_29'
p644
aS'29_12'
p645
aS'29_19'
p646
aS'29_43'
p647
aS'29_28'
p648
aS'29_41'
p649
aS'29_39'
p650
aS'29_47'
p651
aS'29_46'
p652
aS'29_20'
p653
aS'29_49'
p654
aS'29_36'
p655
aS'29_24'
p656
aS'29_27'
p657
aS'29_35'
p658
asI30
(lp659
S'30_33'
p660
aS'30_39'
p661
aS'30_8'
p662
aS'30_9'
p663
aS'30_2'
p664
aS'26_23'
p665
aS'30_7'
p666
aS'30_13'
p667
aS'30_10'
p668
aS'30_55'
p669
aS'30_16'
p670
aS'30_17'
p671
aS'30_28'
p672
aS'30_27'
p673
aS'30_32'
p674
aS'30_19'
p675
aS'30_37'
p676
aS'30_54'
p677
aS'30_46'
p678
aS'30_52'
p679
aS'30_53'
p680
asI31
(lp681
S'31_1'
p682
aS'31_40'
p683
aS'31_6'
p684
aS'31_8'
p685
aS'31_35'
p686
aS'58_36'
p687
aS'31_4'
p688
aS'31_20'
p689
aS'31_21'
p690
aS'31_22'
p691
aS'31_32'
p692
aS'31_30'
p693
aS'20_59'
p694
aS'31_46'
p695
aS'31_44'
p696
aS'31_42'
p697
aS'31_53'
p698
aS'31_52'
p699
aS'31_10'
p700
aS'31_15'
p701
aS'31_48'
p702
aS'31_16'
p703
asI32
(lp704
S'6_5'
p705
aS'32_36'
p706
aS'32_37'
p707
aS'32_34'
p708
aS'32_23'
p709
aS'32_22'
p710
aS'32_31'
p711
aS'86_50'
p712
aS'32_59'
p713
aS'32_6'
p714
aS'32_7'
p715
aS'32_27'
p716
aS'32_0'
p717
aS'32_19'
p718
aS'32_15'
p719
aS'32_17'
p720
aS'32_10'
p721
aS'32_49'
p722
aS'32_50'
p723
aS'32_45'
p724
aS'32_44'
p725
aS'32_55'
p726
asI33
(lp727
S'33_34'
p728
aS'33_37'
p729
aS'33_36'
p730
aS'33_22'
p731
aS'33_23'
p732
aS'33_20'
p733
aS'33_32'
p734
aS'33_19'
p735
aS'33_18'
p736
aS'33_28'
p737
aS'33_7'
p738
aS'33_1'
p739
aS'33_9'
p740
aS'33_8'
p741
aS'33_14'
p742
aS'33_40'
p743
aS'33_41'
p744
aS'33_55'
p745
aS'33_54'
p746
aS'33_46'
p747
asI34
(lp748
S'34_34'
p749
aS'34_41'
p750
aS'34_43'
p751
aS'34_42'
p752
aS'34_45'
p753
aS'34_32'
p754
aS'34_49'
p755
aS'34_58'
p756
aS'34_38'
p757
aS'34_23'
p758
aS'63_24'
p759
aS'34_47'
p760
aS'34_16'
p761
aS'34_15'
p762
aS'34_26'
p763
aS'34_25'
p764
aS'34_54'
p765
aS'34_13'
p766
aS'34_9'
p767
aS'34_4'
p768
aS'34_3'
p769
asI35
(lp770
S'75_18'
p771
aS'35_47'
p772
aS'35_26'
p773
aS'35_32'
p774
aS'35_48'
p775
aS'35_30'
p776
aS'35_11'
p777
aS'35_29'
p778
aS'35_42'
p779
aS'35_40'
p780
aS'35_38'
p781
aS'35_55'
p782
aS'35_21'
p783
aS'35_22'
p784
aS'35_53'
p785
aS'35_4'
p786
aS'35_2'
p787
aS'35_46'
p788
aS'64_4'
p789
aS'35_18'
p790
aS'35_49'
p791
aS'35_37'
p792
asI36
(lp793
S'36_3'
p794
aS'36_6'
p795
aS'36_7'
p796
aS'47_38'
p797
aS'36_5'
p798
aS'36_10'
p799
aS'36_12'
p800
aS'36_13'
p801
aS'36_16'
p802
aS'36_42'
p803
aS'36_37'
p804
aS'36_28'
p805
aS'36_39'
p806
aS'36_58'
p807
aS'36_46'
p808
aS'36_21'
p809
aS'36_23'
p810
aS'36_57'
p811
aS'36_24'
p812
aS'36_34'
p813
aS'36_26'
p814
asI37
(lp815
S'37_9'
p816
aS'37_3'
p817
aS'37_1'
p818
aS'37_7'
p819
aS'37_5'
p820
aS'37_4'
p821
aS'37_20'
p822
aS'37_35'
p823
aS'37_34'
p824
aS'37_38'
p825
aS'37_17'
p826
aS'37_16'
p827
aS'37_28'
p828
aS'37_13'
p829
aS'37_12'
p830
aS'37_11'
p831
aS'37_10'
p832
aS'37_59'
p833
aS'37_53'
p834
aS'37_50'
p835
asI38
(lp836
S'38_0'
p837
aS'38_1'
p838
aS'38_9'
p839
aS'17_30'
p840
aS'38_30'
p841
aS'38_31'
p842
aS'38_25'
p843
aS'38_33'
p844
aS'38_35'
p845
aS'38_20'
p846
aS'38_38'
p847
aS'38_39'
p848
aS'65_8'
p849
aS'38_29'
p850
aS'38_56'
p851
aS'38_54'
p852
aS'38_55'
p853
aS'38_41'
p854
aS'38_53'
p855
aS'38_43'
p856
aS'38_11'
p857
aS'38_59'
p858
asI39
(lp859
S'39_9'
p860
aS'39_0'
p861
aS'39_2'
p862
aS'39_36'
p863
aS'70_18'
p864
aS'39_6'
p865
aS'39_29'
p866
aS'39_13'
p867
aS'39_12'
p868
aS'39_14'
p869
aS'39_16'
p870
aS'53_42'
p871
aS'39_18'
p872
aS'39_24'
p873
aS'39_32'
p874
aS'39_27'
p875
aS'39_59'
p876
aS'39_33'
p877
aS'39_10'
p878
aS'39_47'
p879
aS'39_51'
p880
aS'39_43'
p881
asI40
(lp882
S'40_32'
p883
aS'40_17'
p884
aS'40_49'
p885
aS'40_11'
p886
aS'40_10'
p887
aS'40_24'
p888
aS'40_25'
p889
aS'40_40'
p890
aS'40_20'
p891
aS'40_18'
p892
aS'40_22'
p893
aS'40_45'
p894
aS'40_5'
p895
aS'40_1'
p896
aS'40_2'
p897
aS'40_55'
p898
aS'40_31'
p899
aS'40_47'
p900
aS'40_30'
p901
aS'40_57'
p902
aS'71_35'
p903
asI41
(lp904
S'41_41'
p905
aS'41_52'
p906
aS'41_42'
p907
aS'41_56'
p908
aS'41_44'
p909
aS'41_47'
p910
aS'41_55'
p911
aS'41_39'
p912
aS'41_37'
p913
aS'41_18'
p914
aS'41_17'
p915
aS'41_16'
p916
aS'41_22'
p917
aS'41_15'
p918
aS'41_27'
p919
aS'41_11'
p920
aS'41_46'
p921
aS'41_8'
p922
aS'41_1'
p923
aS'41_2'
p924
asI42
(lp925
S'42_9'
p926
aS'42_24'
p927
aS'42_2'
p928
aS'42_0'
p929
aS'42_4'
p930
aS'42_22'
p931
aS'42_23'
p932
aS'42_20'
p933
aS'42_47'
p934
aS'42_40'
p935
aS'42_41'
p936
aS'42_42'
p937
aS'42_25'
p938
aS'42_39'
p939
aS'42_12'
p940
aS'42_11'
p941
aS'42_59'
p942
aS'42_52'
p943
aS'42_55'
p944
aS'42_49'
p945
asI43
(lp946
S'43_1'
p947
aS'43_6'
p948
aS'43_4'
p949
aS'65_26'
p950
aS'43_8'
p951
aS'43_32'
p952
aS'43_55'
p953
aS'43_56'
p954
aS'43_14'
p955
aS'19_56'
p956
aS'43_43'
p957
aS'43_42'
p958
aS'43_41'
p959
aS'43_40'
p960
aS'43_47'
p961
aS'43_45'
p962
aS'43_54'
p963
aS'43_20'
p964
aS'43_30'
p965
aS'43_51'
p966
aS'43_34'
p967
aS'43_35'
p968
asI44
(lp969
S'44_20'
p970
aS'44_4'
p971
aS'44_8'
p972
aS'44_31'
p973
aS'44_19'
p974
aS'44_37'
p975
aS'44_36'
p976
aS'44_24'
p977
aS'44_32'
p978
aS'44_26'
p979
aS'44_28'
p980
aS'44_29'
p981
aS'44_39'
p982
aS'44_55'
p983
aS'44_45'
p984
aS'44_43'
p985
aS'44_52'
p986
aS'44_10'
p987
aS'44_59'
p988
aS'44_50'
p989
asI45
(lp990
S'45_13'
p991
aS'45_8'
p992
aS'34_18'
p993
aS'45_4'
p994
aS'45_5'
p995
aS'45_7'
p996
aS'45_39'
p997
aS'45_11'
p998
aS'45_16'
p999
aS'45_28'
p1000
aS'45_18'
p1001
aS'45_24'
p1002
aS'45_34'
p1003
aS'45_22'
p1004
aS'54_10'
p1005
aS'45_48'
p1006
aS'45_56'
p1007
aS'45_57'
p1008
aS'45_55'
p1009
aS'45_52'
p1010
aS'45_40'
p1011
aS'45_50'
p1012
asI46
(lp1013
S'46_27'
p1014
aS'46_36'
p1015
aS'46_31'
p1016
aS'46_21'
p1017
aS'46_18'
p1018
aS'46_39'
p1019
aS'46_7'
p1020
aS'46_6'
p1021
aS'46_4'
p1022
aS'46_2'
p1023
aS'46_0'
p1024
aS'46_9'
p1025
aS'46_40'
p1026
aS'46_56'
p1027
aS'46_57'
p1028
aS'46_41'
p1029
aS'46_54'
p1030
aS'46_44'
p1031
aS'46_46'
p1032
aS'66_17'
p1033
aS'46_59'
p1034
asI47
(lp1035
S'47_38'
p1036
aS'47_37'
p1037
aS'47_27'
p1038
aS'47_21'
p1039
aS'47_22'
p1040
aS'47_51'
p1041
aS'47_8'
p1042
aS'47_9'
p1043
aS'47_6'
p1044
aS'47_7'
p1045
aS'47_14'
p1046
aS'47_59'
p1047
aS'47_16'
p1048
aS'47_11'
p1049
aS'47_49'
p1050
aS'47_48'
p1051
aS'47_47'
p1052
aS'47_46'
p1053
aS'47_45'
p1054
aS'47_42'
p1055
asI48
(lp1056
S'48_19'
p1057
aS'48_18'
p1058
aS'48_33'
p1059
aS'48_45'
p1060
aS'48_36'
p1061
aS'42_30'
p1062
aS'48_58'
p1063
aS'48_51'
p1064
aS'48_9'
p1065
aS'48_55'
p1066
aS'61_24'
p1067
aS'48_5'
p1068
aS'48_7'
p1069
aS'48_0'
p1070
aS'48_42'
p1071
aS'48_25'
p1072
aS'48_41'
p1073
aS'48_20'
p1074
aS'48_56'
p1075
aS'48_46'
p1076
aS'48_48'
p1077
aS'48_29'
p1078
asI49
(lp1079
S'49_16'
p1080
aS'49_48'
p1081
aS'49_59'
p1082
aS'49_12'
p1083
aS'49_25'
p1084
aS'49_52'
p1085
aS'49_53'
p1086
aS'49_23'
p1087
aS'49_28'
p1088
aS'49_44'
p1089
aS'49_54'
p1090
aS'49_19'
p1091
aS'49_4'
p1092
aS'49_5'
p1093
aS'49_6'
p1094
aS'49_57'
p1095
aS'49_18'
p1096
aS'49_36'
p1097
aS'49_27'
p1098
aS'49_46'
p1099
asI50
(lp1100
S'50_2'
p1101
aS'50_0'
p1102
aS'50_1'
p1103
aS'50_4'
p1104
aS'50_21'
p1105
aS'50_27'
p1106
aS'50_18'
p1107
aS'50_41'
p1108
aS'50_43'
p1109
aS'50_28'
p1110
aS'50_38'
p1111
aS'50_40'
p1112
aS'50_58'
p1113
aS'50_52'
p1114
aS'50_44'
p1115
aS'50_32'
p1116
aS'50_55'
p1117
aS'50_30'
p1118
aS'32_18'
p1119
aS'50_34'
p1120
aS'50_26'
p1121
asI51
(lp1122
S'51_3'
p1123
aS'51_2'
p1124
aS'51_1'
p1125
aS'51_0'
p1126
aS'51_7'
p1127
aS'51_22'
p1128
aS'51_23'
p1129
aS'51_46'
p1130
aS'51_47'
p1131
aS'51_27'
p1132
aS'51_24'
p1133
aS'51_17'
p1134
aS'41_15'
p1135
aS'51_13'
p1136
aS'51_31'
p1137
aS'43_13'
p1138
aS'51_30'
p1139
aS'51_53'
p1140
aS'51_52'
p1141
aS'51_55'
p1142
aS'51_21'
p1143
aS'51_32'
p1144
asI52
(lp1145
S'52_35'
p1146
aS'52_36'
p1147
aS'52_45'
p1148
aS'52_57'
p1149
aS'52_32'
p1150
aS'22_33'
p1151
aS'52_58'
p1152
aS'52_59'
p1153
aS'52_38'
p1154
aS'52_28'
p1155
aS'52_23'
p1156
aS'52_22'
p1157
aS'52_27'
p1158
aS'52_26'
p1159
aS'52_25'
p1160
aS'52_47'
p1161
aS'26_41'
p1162
aS'52_8'
p1163
aS'52_5'
p1164
aS'52_0'
p1165
aS'52_1'
p1166
aS'52_2'
p1167
asI53
(lp1168
S'72_18'
p1169
aS'10_30'
p1170
aS'53_33'
p1171
aS'53_58'
p1172
aS'53_31'
p1173
aS'53_49'
p1174
aS'53_36'
p1175
aS'53_35'
p1176
aS'53_12'
p1177
aS'53_51'
p1178
aS'53_53'
p1179
aS'53_38'
p1180
aS'53_21'
p1181
aS'53_45'
p1182
aS'53_4'
p1183
aS'53_7'
p1184
aS'53_52'
p1185
aS'53_0'
p1186
aS'53_32'
p1187
aS'53_59'
p1188
aS'53_47'
p1189
aS'53_16'
p1190
asI54
(lp1191
S'54_28'
p1192
aS'54_38'
p1193
aS'54_25'
p1194
aS'54_37'
p1195
aS'54_27'
p1196
aS'54_26'
p1197
aS'54_32'
p1198
aS'54_20'
p1199
aS'54_30'
p1200
aS'54_31'
p1201
aS'54_8'
p1202
aS'54_54'
p1203
aS'54_2'
p1204
aS'54_14'
p1205
aS'54_15'
p1206
aS'54_11'
p1207
aS'22_14'
p1208
aS'54_51'
p1209
aS'54_33'
p1210
aS'54_42'
p1211
aS'54_41'
p1212
asI55
(lp1213
S'55_12'
p1214
aS'55_24'
p1215
aS'55_10'
p1216
aS'55_31'
p1217
aS'55_30'
p1218
aS'55_33'
p1219
aS'55_14'
p1220
aS'55_37'
p1221
aS'84_18'
p1222
aS'55_25'
p1223
aS'55_3'
p1224
aS'55_2'
p1225
aS'55_0'
p1226
aS'55_16'
p1227
aS'55_9'
p1228
aS'55_23'
p1229
aS'55_4'
p1230
aS'55_46'
p1231
aS'55_8'
p1232
aS'6_40'
p1233
aS'55_59'
p1234
aS'55_58'
p1235
asI56
(lp1236
S'56_34'
p1237
aS'56_8'
p1238
aS'56_9'
p1239
aS'13_42'
p1240
aS'56_6'
p1241
aS'56_14'
p1242
aS'66_56'
p1243
aS'56_27'
p1244
aS'56_41'
p1245
aS'56_23'
p1246
aS'56_22'
p1247
aS'56_20'
p1248
aS'56_30'
p1249
aS'56_49'
p1250
aS'56_48'
p1251
aS'56_58'
p1252
aS'56_59'
p1253
aS'56_56'
p1254
aS'56_55'
p1255
aS'56_52'
p1256
aS'56_40'
p1257
aS'56_43'
p1258
asI57
(lp1259
S'57_2'
p1260
aS'57_52'
p1261
aS'57_22'
p1262
aS'57_23'
p1263
aS'57_32'
p1264
aS'57_18'
p1265
aS'57_28'
p1266
aS'57_27'
p1267
aS'57_44'
p1268
aS'57_39'
p1269
aS'57_14'
p1270
aS'57_19'
p1271
aS'57_54'
p1272
aS'57_57'
p1273
aS'57_56'
p1274
aS'57_42'
p1275
aS'57_53'
p1276
aS'57_41'
p1277
aS'57_10'
p1278
aS'57_58'
p1279
asI58
(lp1280
S'58_8'
p1281
aS'58_23'
p1282
aS'58_0'
p1283
aS'58_6'
p1284
aS'58_7'
p1285
aS'58_4'
p1286
aS'58_21'
p1287
aS'58_33'
p1288
aS'58_30'
p1289
aS'58_22'
p1290
aS'58_25'
p1291
aS'58_53'
p1292
aS'58_39'
p1293
aS'58_15'
p1294
aS'58_49'
p1295
aS'58_19'
p1296
aS'58_43'
p1297
aS'58_42'
p1298
aS'58_40'
p1299
aS'58_46'
p1300
asI59
(lp1301
S'59_58'
p1302
aS'59_16'
p1303
aS'59_13'
p1304
aS'59_12'
p1305
aS'59_10'
p1306
aS'59_44'
p1307
aS'59_38'
p1308
aS'59_50'
p1309
aS'59_31'
p1310
aS'59_23'
p1311
aS'59_33'
p1312
aS'59_47'
p1313
aS'59_24'
p1314
aS'59_22'
p1315
aS'59_1'
p1316
aS'59_0'
p1317
aS'59_6'
p1318
aS'59_4'
p1319
aS'59_59'
p1320
aS'59_20'
p1321
asI60
(lp1322
S'60_9'
p1323
aS'60_7'
p1324
aS'60_2'
p1325
aS'60_57'
p1326
aS'60_41'
p1327
aS'60_55'
p1328
aS'60_51'
p1329
aS'60_47'
p1330
aS'60_19'
p1331
aS'60_18'
p1332
aS'60_28'
p1333
aS'60_13'
p1334
aS'60_27'
p1335
aS'60_37'
p1336
aS'60_25'
p1337
aS'60_31'
p1338
aS'60_23'
p1339
aS'60_35'
p1340
aS'60_34'
p1341
aS'60_11'
p1342
asI61
(lp1343
S'61_6'
p1344
aS'61_7'
p1345
aS'61_4'
p1346
aS'61_0'
p1347
aS'14_55'
p1348
aS'61_44'
p1349
aS'61_43'
p1350
aS'61_41'
p1351
aS'61_56'
p1352
aS'61_40'
p1353
aS'61_58'
p1354
aS'61_59'
p1355
aS'61_48'
p1356
aS'61_25'
p1357
aS'61_24'
p1358
aS'61_34'
p1359
aS'61_32'
p1360
aS'61_33'
p1361
aS'61_23'
p1362
aS'61_17'
p1363
aS'61_28'
p1364
aS'61_19'
p1365
asI62
(lp1366
S'62_13'
p1367
aS'62_39'
p1368
aS'62_16'
p1369
aS'62_21'
p1370
aS'62_23'
p1371
aS'62_24'
p1372
aS'62_31'
p1373
aS'62_59'
p1374
aS'62_26'
p1375
aS'62_47'
p1376
aS'62_54'
p1377
aS'62_57'
p1378
aS'62_56'
p1379
aS'62_51'
p1380
aS'35_26'
p1381
aS'62_53'
p1382
aS'62_45'
p1383
aS'62_42'
p1384
aS'30_36'
p1385
aS'62_36'
p1386
aS'62_0'
p1387
aS'62_58'
p1388
asI63
(lp1389
S'63_48'
p1390
aS'63_27'
p1391
aS'63_31'
p1392
aS'63_34'
p1393
aS'63_35'
p1394
aS'63_20'
p1395
aS'36_20'
p1396
aS'63_45'
p1397
aS'63_30'
p1398
aS'63_47'
p1399
aS'63_19'
p1400
aS'63_52'
p1401
aS'63_42'
p1402
aS'63_12'
p1403
aS'63_51'
p1404
aS'63_17'
p1405
aS'63_14'
p1406
aS'63_59'
p1407
aS'63_3'
p1408
aS'63_6'
p1409
aS'63_9'
p1410
asI64
(lp1411
S'64_17'
p1412
aS'64_13'
p1413
aS'64_39'
p1414
aS'64_52'
p1415
aS'64_51'
p1416
aS'64_29'
p1417
aS'64_57'
p1418
aS'64_22'
p1419
aS'64_33'
p1420
aS'64_58'
p1421
aS'64_35'
p1422
aS'64_37'
p1423
aS'64_36'
p1424
aS'64_1'
p1425
aS'64_21'
p1426
aS'64_7'
p1427
aS'64_6'
p1428
aS'64_4'
p1429
aS'64_50'
p1430
aS'64_48'
p1431
aS'53_23'
p1432
asI65
(lp1433
S'65_54'
p1434
aS'65_23'
p1435
aS'65_57'
p1436
aS'65_25'
p1437
aS'65_51'
p1438
aS'65_10'
p1439
aS'65_28'
p1440
aS'65_12'
p1441
aS'65_15'
p1442
aS'65_16'
p1443
aS'65_17'
p1444
aS'65_40'
p1445
aS'65_46'
p1446
aS'65_45'
p1447
aS'65_44'
p1448
aS'92_51'
p1449
aS'65_29'
p1450
aS'65_3'
p1451
aS'65_1'
p1452
aS'65_6'
p1453
aS'65_38'
p1454
asI66
(lp1455
S'66_25'
p1456
aS'66_55'
p1457
aS'66_4'
p1458
aS'66_1'
p1459
aS'66_50'
p1460
aS'66_26'
p1461
aS'66_52'
p1462
aS'66_20'
p1463
aS'66_45'
p1464
aS'66_58'
p1465
aS'66_48'
p1466
aS'66_23'
p1467
aS'66_28'
p1468
aS'66_39'
p1469
aS'66_38'
p1470
aS'66_19'
p1471
aS'66_18'
p1472
aS'66_31'
p1473
aS'66_30'
p1474
aS'66_10'
p1475
asI67
(lp1476
S'67_49'
p1477
aS'67_22'
p1478
aS'67_58'
p1479
aS'67_20'
p1480
aS'67_24'
p1481
aS'67_52'
p1482
aS'67_53'
p1483
aS'67_29'
p1484
aS'67_42'
p1485
aS'67_30'
p1486
aS'67_31'
p1487
aS'67_47'
p1488
aS'67_55'
p1489
aS'67_59'
p1490
aS'67_18'
p1491
aS'67_2'
p1492
aS'67_33'
p1493
aS'67_35'
p1494
aS'67_40'
p1495
aS'67_21'
p1496
asI68
(lp1497
S'68_7'
p1498
aS'68_4'
p1499
aS'68_1'
p1500
aS'68_8'
p1501
aS'68_57'
p1502
aS'68_56'
p1503
aS'68_54'
p1504
aS'68_47'
p1505
aS'68_49'
p1506
aS'68_13'
p1507
aS'68_10'
p1508
aS'68_17'
p1509
aS'68_16'
p1510
aS'68_32'
p1511
aS'68_22'
p1512
aS'68_19'
p1513
aS'68_18'
p1514
aS'68_39'
p1515
aS'68_38'
p1516
aS'68_23'
p1517
asI69
(lp1518
S'69_44'
p1519
aS'69_9'
p1520
aS'69_7'
p1521
aS'69_4'
p1522
aS'69_2'
p1523
aS'69_1'
p1524
aS'69_58'
p1525
aS'69_15'
p1526
aS'69_13'
p1527
aS'69_53'
p1528
aS'69_18'
p1529
aS'69_42'
p1530
aS'69_20'
p1531
aS'69_28'
p1532
aS'69_39'
p1533
aS'69_34'
p1534
aS'69_35'
p1535
aS'69_32'
p1536
aS'69_33'
p1537
aS'69_30'
p1538
asI70
(lp1539
S'70_17'
p1540
aS'70_42'
p1541
aS'70_12'
p1542
aS'70_26'
p1543
aS'70_25'
p1544
aS'70_41'
p1545
aS'70_43'
p1546
aS'70_51'
p1547
aS'70_30'
p1548
aS'70_18'
p1549
aS'70_4'
p1550
aS'70_20'
p1551
aS'70_1'
p1552
aS'70_2'
p1553
aS'70_47'
p1554
aS'70_13'
p1555
aS'70_28'
p1556
aS'57_47'
p1557
aS'69_20'
p1558
aS'70_54'
p1559
aS'70_34'
p1560
aS'70_36'
p1561
asI71
(lp1562
S'71_42'
p1563
aS'71_25'
p1564
aS'71_52'
p1565
aS'71_32'
p1566
aS'71_46'
p1567
aS'71_6'
p1568
aS'71_24'
p1569
aS'71_43'
p1570
aS'71_41'
p1571
aS'71_55'
p1572
aS'71_54'
p1573
aS'71_57'
p1574
aS'71_45'
p1575
aS'71_48'
p1576
aS'71_56'
p1577
aS'71_4'
p1578
aS'16_4'
p1579
aS'71_18'
p1580
aS'71_14'
p1581
aS'71_31'
p1582
aS'38_23'
p1583
aS'71_37'
p1584
asI72
(lp1585
S'72_21'
p1586
aS'72_19'
p1587
aS'72_23'
p1588
aS'72_50'
p1589
aS'72_37'
p1590
aS'72_34'
p1591
aS'72_53'
p1592
aS'72_29'
p1593
aS'72_39'
p1594
aS'72_30'
p1595
aS'72_17'
p1596
aS'72_49'
p1597
aS'72_48'
p1598
aS'72_42'
p1599
aS'72_46'
p1600
aS'72_24'
p1601
aS'72_27'
p1602
aS'15_55'
p1603
aS'72_35'
p1604
aS'72_10'
p1605
aS'72_0'
p1606
asI73
(lp1607
S'73_14'
p1608
aS'73_12'
p1609
aS'73_11'
p1610
aS'73_10'
p1611
aS'73_53'
p1612
aS'23_17'
p1613
aS'73_50'
p1614
aS'73_48'
p1615
aS'73_23'
p1616
aS'73_45'
p1617
aS'73_32'
p1618
aS'73_26'
p1619
aS'73_42'
p1620
aS'73_36'
p1621
aS'73_3'
p1622
aS'73_21'
p1623
aS'73_7'
p1624
aS'73_6'
p1625
aS'73_4'
p1626
aS'73_35'
p1627
aS'73_8'
p1628
asI74
(lp1629
S'74_16'
p1630
aS'74_37'
p1631
aS'74_17'
p1632
aS'37_44'
p1633
aS'74_31'
p1634
aS'74_34'
p1635
aS'74_22'
p1636
aS'74_21'
p1637
aS'74_20'
p1638
aS'74_38'
p1639
aS'74_54'
p1640
aS'74_52'
p1641
aS'74_26'
p1642
aS'74_12'
p1643
aS'74_13'
p1644
aS'74_49'
p1645
aS'74_48'
p1646
aS'74_14'
p1647
aS'74_1'
p1648
aS'74_3'
p1649
aS'72_28'
p1650
aS'74_9'
p1651
asI75
(lp1652
S'75_28'
p1653
aS'75_14'
p1654
aS'75_16'
p1655
aS'75_19'
p1656
aS'75_21'
p1657
aS'75_22'
p1658
aS'75_34'
p1659
aS'75_33'
p1660
aS'75_26'
p1661
aS'75_52'
p1662
aS'75_48'
p1663
aS'75_46'
p1664
aS'77_41'
p1665
aS'75_44'
p1666
aS'75_50'
p1667
aS'75_41'
p1668
aS'75_9'
p1669
aS'75_36'
p1670
aS'75_0'
p1671
aS'75_2'
p1672
aS'75_5'
p1673
asI76
(lp1674
S'76_5'
p1675
aS'76_30'
p1676
aS'76_0'
p1677
aS'76_12'
p1678
aS'76_55'
p1679
aS'76_50'
p1680
aS'76_46'
p1681
aS'76_53'
p1682
aS'76_43'
p1683
aS'76_42'
p1684
aS'76_40'
p1685
aS'76_59'
p1686
aS'76_24'
p1687
aS'76_32'
p1688
aS'76_20'
p1689
aS'76_23'
p1690
aS'76_31'
p1691
aS'76_11'
p1692
aS'76_38'
p1693
aS'76_13'
p1694
asI77
(lp1695
S'77_25'
p1696
aS'77_9'
p1697
aS'77_8'
p1698
aS'77_7'
p1699
aS'77_2'
p1700
aS'77_1'
p1701
aS'77_58'
p1702
aS'77_40'
p1703
aS'77_42'
p1704
aS'77_54'
p1705
aS'77_45'
p1706
aS'77_46'
p1707
aS'77_50'
p1708
aS'77_28'
p1709
aS'77_13'
p1710
aS'77_12'
p1711
aS'77_10'
p1712
aS'77_21'
p1713
aS'77_55'
p1714
aS'77_27'
p1715
asI78
(lp1716
S'78_29'
p1717
aS'78_54'
p1718
aS'78_18'
p1719
aS'78_23'
p1720
aS'78_10'
p1721
aS'78_34'
p1722
aS'83_35'
p1723
aS'78_4'
p1724
aS'78_6'
p1725
aS'78_0'
p1726
aS'78_1'
p1727
aS'78_3'
p1728
aS'78_52'
p1729
aS'78_35'
p1730
aS'78_50'
p1731
aS'78_51'
p1732
aS'78_45'
p1733
aS'78_32'
p1734
aS'78_55'
p1735
aS'78_59'
p1736
aS'78_38'
p1737
asI79
(lp1738
S'79_15'
p1739
aS'79_48'
p1740
aS'79_16'
p1741
aS'79_37'
p1742
aS'79_10'
p1743
aS'79_12'
p1744
aS'79_50'
p1745
aS'79_26'
p1746
aS'79_27'
p1747
aS'79_55'
p1748
aS'79_31'
p1749
aS'79_23'
p1750
aS'79_4'
p1751
aS'79_0'
p1752
aS'79_3'
p1753
aS'79_11'
p1754
aS'79_9'
p1755
aS'79_40'
p1756
aS'4_57'
p1757
aS'57_40'
p1758
aS'79_43'
p1759
aS'79_39'
p1760
asI80
(lp1761
S'0_32'
p1762
aS'80_23'
p1763
aS'80_33'
p1764
aS'80_27'
p1765
aS'80_28'
p1766
aS'80_51'
p1767
aS'80_18'
p1768
aS'80_44'
p1769
aS'80_42'
p1770
aS'80_50'
p1771
aS'80_40'
p1772
aS'80_11'
p1773
aS'80_10'
p1774
aS'80_15'
p1775
aS'80_14'
p1776
aS'80_17'
p1777
aS'80_16'
p1778
aS'80_5'
p1779
aS'80_4'
p1780
aS'80_6'
p1781
aS'80_9'
p1782
aS'25_59'
p1783
asI81
(lp1784
S'81_8'
p1785
aS'81_9'
p1786
aS'81_2'
p1787
aS'81_3'
p1788
aS'81_4'
p1789
aS'81_5'
p1790
aS'81_12'
p1791
aS'81_10'
p1792
aS'81_17'
p1793
aS'81_15'
p1794
aS'81_30'
p1795
aS'81_24'
p1796
aS'81_23'
p1797
aS'81_22'
p1798
aS'81_36'
p1799
aS'81_20'
p1800
aS'81_38'
p1801
aS'81_19'
p1802
aS'40_1'
p1803
aS'81_53'
p1804
aS'81_42'
p1805
asI82
(lp1806
S'82_5'
p1807
aS'82_4'
p1808
aS'82_3'
p1809
aS'82_20'
p1810
aS'82_1'
p1811
aS'82_14'
p1812
aS'82_32'
p1813
aS'82_23'
p1814
aS'82_43'
p1815
aS'82_45'
p1816
aS'82_47'
p1817
aS'33_56'
p1818
aS'82_26'
p1819
aS'82_27'
p1820
aS'82_16'
p1821
aS'82_15'
p1822
aS'82_21'
p1823
aS'82_19'
p1824
aS'82_18'
p1825
aS'82_38'
p1826
aS'82_30'
p1827
asI83
(lp1828
S'83_48'
p1829
aS'83_8'
p1830
aS'83_4'
p1831
aS'83_3'
p1832
aS'83_14'
p1833
aS'83_59'
p1834
aS'83_16'
p1835
aS'83_11'
p1836
aS'83_13'
p1837
aS'83_47'
p1838
aS'83_52'
p1839
aS'83_53'
p1840
aS'83_19'
p1841
aS'83_40'
p1842
aS'83_39'
p1843
aS'83_34'
p1844
aS'83_22'
p1845
aS'83_32'
p1846
aS'83_23'
p1847
aS'83_31'
p1848
asI84
(lp1849
S'84_15'
p1850
aS'84_33'
p1851
aS'84_48'
p1852
aS'84_49'
p1853
aS'84_37'
p1854
aS'84_36'
p1855
aS'84_34'
p1856
aS'84_42'
p1857
aS'84_43'
p1858
aS'84_41'
p1859
aS'84_19'
p1860
aS'84_54'
p1861
aS'84_57'
p1862
aS'84_45'
p1863
aS'84_2'
p1864
aS'84_56'
p1865
aS'84_8'
p1866
aS'84_25'
p1867
aS'84_55'
p1868
aS'84_23'
p1869
asI85
(lp1870
S'85_28'
p1871
aS'85_45'
p1872
aS'85_19'
p1873
aS'85_16'
p1874
aS'85_22'
p1875
aS'85_21'
p1876
aS'85_15'
p1877
aS'85_13'
p1878
aS'85_37'
p1879
aS'34_5'
p1880
aS'85_9'
p1881
aS'85_36'
p1882
aS'85_2'
p1883
aS'85_40'
p1884
aS'85_43'
p1885
aS'85_51'
p1886
aS'85_56'
p1887
aS'85_57'
p1888
aS'85_47'
p1889
aS'74_7'
p1890
aS'85_48'
p1891
aS'85_38'
p1892
asI86
(lp1893
S'86_45'
p1894
aS'86_46'
p1895
aS'86_32'
p1896
aS'86_26'
p1897
aS'86_37'
p1898
aS'86_23'
p1899
aS'86_28'
p1900
aS'86_29'
p1901
aS'86_48'
p1902
aS'86_20'
p1903
aS'55_6'
p1904
aS'86_59'
p1905
aS'86_52'
p1906
aS'86_19'
p1907
aS'86_43'
p1908
aS'86_9'
p1909
aS'86_3'
p1910
aS'86_0'
p1911
aS'86_15'
p1912
aS'86_5'
p1913
aS'86_4'
p1914
asI87
(lp1915
S'87_48'
p1916
aS'87_25'
p1917
aS'87_11'
p1918
aS'87_15'
p1919
aS'87_18'
p1920
aS'87_43'
p1921
aS'87_42'
p1922
aS'87_38'
p1923
aS'87_47'
p1924
aS'87_59'
p1925
aS'87_45'
p1926
aS'87_54'
p1927
aS'87_20'
p1928
aS'87_56'
p1929
aS'87_57'
p1930
aS'87_50'
p1931
aS'87_24'
p1932
aS'87_26'
p1933
aS'90_46'
p1934
aS'1_39'
p1935
aS'87_30'
p1936
aS'87_23'
p1937
asI88
(lp1938
S'88_13'
p1939
aS'88_12'
p1940
aS'88_14'
p1941
aS'88_18'
p1942
aS'88_20'
p1943
aS'88_36'
p1944
aS'88_35'
p1945
aS'88_34'
p1946
aS'88_33'
p1947
aS'88_25'
p1948
aS'88_26'
p1949
aS'88_30'
p1950
aS'88_59'
p1951
aS'88_55'
p1952
aS'88_42'
p1953
aS'88_40'
p1954
aS'88_41'
p1955
aS'88_9'
p1956
aS'88_21'
p1957
aS'88_2'
p1958
asI89
(lp1959
S'89_31'
p1960
aS'89_32'
p1961
aS'89_24'
p1962
aS'89_23'
p1963
aS'89_14'
p1964
aS'89_53'
p1965
aS'89_34'
p1966
aS'89_54'
p1967
aS'76_54'
p1968
aS'89_40'
p1969
aS'89_51'
p1970
aS'89_12'
p1971
aS'89_13'
p1972
aS'89_49'
p1973
aS'89_17'
p1974
aS'89_58'
p1975
aS'89_59'
p1976
aS'89_2'
p1977
aS'89_6'
p1978
aS'89_9'
p1979
aS'89_22'
p1980
asI90
(lp1981
S'90_19'
p1982
aS'90_55'
p1983
aS'58_34'
p1984
aS'90_6'
p1985
aS'90_5'
p1986
aS'90_11'
p1987
aS'90_50'
p1988
aS'90_51'
p1989
aS'90_52'
p1990
aS'90_18'
p1991
aS'90_42'
p1992
aS'90_28'
p1993
aS'90_38'
p1994
aS'90_36'
p1995
aS'90_37'
p1996
aS'90_34'
p1997
aS'90_22'
p1998
aS'90_21'
p1999
aS'90_33'
p2000
aS'90_30'
p2001
aS'90_31'
p2002
asI91
(lp2003
S'91_34'
p2004
aS'91_3'
p2005
aS'91_2'
p2006
aS'91_32'
p2007
aS'91_9'
p2008
aS'91_8'
p2009
aS'11_36'
p2010
aS'91_56'
p2011
aS'91_43'
p2012
aS'91_44'
p2013
aS'91_47'
p2014
aS'91_49'
p2015
aS'20_34'
p2016
aS'91_59'
p2017
aS'91_27'
p2018
aS'91_11'
p2019
aS'91_36'
p2020
aS'91_22'
p2021
aS'91_15'
p2022
aS'91_21'
p2023
aS'91_18'
p2024
aS'91_28'
p2025
asI92
(lp2026
S'92_9'
p2027
aS'92_14'
p2028
aS'92_15'
p2029
aS'92_4'
p2030
aS'30_22'
p2031
aS'92_13'
p2032
aS'92_59'
p2033
aS'92_17'
p2034
aS'92_29'
p2035
aS'92_28'
p2036
aS'92_27'
p2037
aS'92_36'
p2038
aS'92_20'
p2039
aS'92_48'
p2040
aS'92_39'
p2041
aS'92_56'
p2042
aS'92_46'
p2043
aS'92_52'
p2044
aS'92_40'
p2045
aS'92_43'
p2046
aS'92_42'
p2047
as.