(dp1
VKorean (KOR)
p2
(lp3
VKOR424
p4
aVKOR425
p5
aVKOR494H
p6
aVHIST150
p7
aVKOR121
p8
aVKOR099
p9
aVKOR120
p10
aVHUM150
p11
asVRecreation, Park, and Tourism Management (RPTM)
p12
(lp13
VRPTM495B
p14
aVRPTM399
p15
aVRPTM100
p16
aVRPTM296
p17
aVRPTM295
p18
aVRPTM430
p19
aVRPTM295A
p20
aVRPTM300
p21
aVRPTM498
p22
aVRPTM201
p23
aVRPTM397A
p24
aVRPTM098
p25
aVRPTM198
p26
aVRPTM300Y
p27
aVRPTM230
p28
aVRPTM001
p29
aVRPTM495D
p30
aVRPTM497C
p31
aVRPTM326
p32
aVRPTM325
p33
asVSecurity and Risk Analysis (SRA)
p34
(lp35
VSRA211
p36
aVSRA099
p37
aVSRA440W
p38
aVSRA450
p39
aVSRA197
p40
aVSRA111
p41
aVSRA311
p42
aVSRA001
p43
aVSRA231
p44
aVSRA221
p45
aVSRA497
p46
aVSRA268
p47
aVSRA496
p48
aVSRA421
p49
aVSRA299
p50
aVSRA472
p51
aVSRA433
p52
aVSRA296
p53
aVSRA365
p54
aVSRA294
p55
asVMarketing (MKTG)
p56
(lp57
VMKTG397
p58
aVMKTG296
p59
aVMKTG343
p60
aVMKTG299
p61
aVMKTG399
p62
aVMKTG221W
p63
aVMKTG480
p64
aVMKTG441
p65
aVMKTG301W
p66
aVMKTG496B
p67
aVMKTG310
p68
aVMKTG496
p69
aVMKTG199
p70
aVMKTG426
p71
aVMKTG485
p72
aVLATIN497
p73
aVMKTG221
p74
aVMKTG472
p75
aVMKTG428
p76
aVMKTG476
p77
aVMKTG494H
p78
asVGraphic Design (GD)
p79
(lp80
VGD404
p81
aVARMY203
p82
aVECON404W
p83
aVGD102
p84
aVGD101
p85
aVGD397
p86
aVGD402
p87
aVGD403
p88
aVGD001S
p89
aVGD406
p90
aVGD494H
p91
aVGD405
p92
aVGD304
p93
aVGD395
p94
aVGD310
p95
aVGD303
p96
aVGD302
p97
aVGD200
p98
aVGD203
p99
aVGD495
p100
aVGD295
p101
aVGD497
p102
asVOccupational Therapy (OT)
p103
(lp104
VOT206
p105
aVOT201
p106
aVOT202
p107
aVOT202H
p108
aVOT107
p109
aVOT105
p110
aVOT103
p111
aVSOC013H
p112
aVOT100
p113
aVOT206H
p114
aVOT495
p115
aVOT496
p116
aVOT297
p117
aVOT296
p118
aVOT295
p119
aVOT412
p120
aVOT295A
p121
aVOT411
p122
aVOT401
p123
aVOT195B
p124
aVOT195A
p125
asVEducation (EDUC)
p126
(lp127
VEDUC462
p128
aVEDUC197
p129
aVEDUC352
p130
aVEDUC199
p131
aVEDUC495A
p132
aVEDUC472
p133
aVEDUC404
p134
aVARTSA301
p135
aVEDUC464
p136
aVEDUC465
p137
aVEDUC401
p138
aVARTH250
p139
aVEDUC305
p140
aVEDUC408
p141
aVEDUC418
p142
aVEDUC436
p143
aVEDUC435
p144
aVEDUC100
p145
aVEDUC421
p146
aVEDUC495
p147
aVEDUC321
p148
aVEDUC425
p149
asVMining (MNG)
p150
(lp151
VMNG404
p152
aVMNG411
p153
aVMNG410
p154
aVMNG410H
p155
aVMNG412
p156
aVMNG451
p157
aVMNG441
p158
aVMNG422
p159
aVMNG401
p160
aVMNG494H
p161
aVASIA101N
p162
aVMNG230
p163
aVMNG497A
p164
aVPNG456
p165
aVMNG497
p166
aVMNG331
p167
aVMNG223
p168
asVSchool of Science Engineering and Technology (SSET)
p169
(lp170
VSSET295
p171
aVSSET495
p172
aVACCTG403W
p173
aVSSET395
p174
aVEDUC475
p175
asVEngineering (ENGR)
p176
(lp177
VENGR497B
p178
aVENGR415
p179
aVENGR297B
p180
aVENGR001R
p181
aVENGR451
p182
aVENGR455
p183
aVENGR497A
p184
aVENGR199
p185
aVENGR426
p186
aVENGR195
p187
aVENGR194
p188
aVENGR407
p189
aVINART205
p190
aVENGR097
p191
aVENGR487
p192
aVENGR486
p193
aVENGR310
p194
aVENGR201
p195
aVENGR394
p196
aVENGR397
p197
aVENGR195A
p198
asVScience (SC)
p199
(lp200
VSC205N
p201
aVSC220
p202
aVSC402
p203
aVSC401
p204
aVSC400
p205
aVSC103N
p206
aVSC240
p207
aVSC497
p208
aVSC201
p209
aVSC200
p210
aVSC210
p211
aVSC100
p212
aVSC101
p213
aVSC296
p214
aVSC297
p215
aVSC294
p216
aVSC295
p217
aVSC494
p218
aVSC395
p219
aVSC495
p220
asVCriminal Justice (CRIMJ)
p221
(lp222
VLARCH221
p223
aVMUSIC420
p224
aVCRIMJ296
p225
aVCRIMJ389
p226
aVCRIMJ482
p227
aVCRIMJ260
p228
aVCRIMJ469
p229
aVCRIMJ495
p230
aVCRIMJ496
p231
aVCRIMJ205N
p232
aVCRIMJ407
p233
aVCRIMJ450W
p234
aVCRIMJ460
p235
aVCRIMJ345
p236
aVCRIMJ241
p237
aVCRIMJ240
p238
aVCRIMJ221
p239
aVCRIMJ310
p240
aVCRIMJ199
p241
aVCRIMJ413
p242
aVCRIMJ414
p243
aVCRIMJ406
p244
asVBiorenewable Systems (BRS)
p245
(lp246
VBRS490
p247
aVBRS494
p248
aVBRS495
p249
aVBRS429W
p250
aVBRS497
p251
aVBRS494H
p252
aVBRS496
p253
aVBRS417
p254
aVBRS437
p255
aVBRS221
p256
aVENGR422
p257
aVBRS423
p258
aVBRS402
p259
aVBRS300
p260
aVBRS428
p261
aVBRS411
p262
aVBRS426
p263
aVBRS393
p264
aVBRS392
p265
aVBRS391
p266
aVBRS422
p267
asVLatin (LATIN)
p268
(lp269
VLATIN450
p270
aVLATIN102
p271
aVLATIN101
p272
aVLATIN296
p273
aVLATIN002
p274
aVLATIN003
p275
aVLATIN404
p276
aVLATIN001
p277
aVLATIN402
p278
aVLATIN403
p279
aVLATIN051
p280
aVLATIN053
p281
aVLATIN052
p282
aVLATIN203
p283
aVBIOL127
p284
aVLATIN402H
p285
aVLATIN494
p286
aVLATIN497
p287
aVLATIN496
p288
asVSupply Chain Management (SCM)
p289
(lp290
VSCM400
p291
aVSCM410
p292
aVSCM406
p293
aVSCM405
p294
aVSCM404
p295
aVSCM301
p296
aVSCM450
p297
aVSCM340
p298
aVSCM421H
p299
aVSCM421
p300
aVSCM399
p301
aVSCM199
p302
aVSCM496A
p303
aVSCM494H
p304
aVSCM200H
p305
aVSCM494
p306
aVSCM496
p307
aVSCM497
p308
aVSCM455
p309
aVSCM200
p310
asVWildlife and Fisheries Science (WFS)
p311
(lp312
VHM270
p313
aVWFS430
p314
aVWFS436
p315
aVWFS453
p316
aVWFS300
p317
aVWFS297
p318
aVWFS296
p319
aVWFS408
p320
aVWFS494H
p321
aVWFS422
p322
aVWFS447M
p323
aVWFS454
p324
aVWFS435
p325
aVWFS452
p326
aVWFS450
p327
aVWFS407
p328
aVWFS495
p329
aVWFS310
p330
aVWFS461
p331
aVWFS462
p332
aVWFS447
p333
asVPhysical Therapy (PT)
p334
(lp335
VPT100
p336
aVPT101
p337
aVPT202
p338
aVPT395G
p339
aVPT395F
p340
aVPT205
p341
aVPT282
p342
aVPT281
p343
aVPT280W
p344
aVPT285
p345
aVPT290
p346
aVPT384
p347
aVPT272
p348
aVPT282W
p349
aVPHIL453
p350
aVPT271
p351
aVPT150
p352
aVPT260
p353
aVPT280
p354
aVPT270W
p355
aVPT201
p356
asVInternational Agriculture (INTAG)
p357
(lp358
VINTAG460
p359
aVINTAG100
p360
aVINTAG199
p361
aVINTAG399
p362
aVINTAG398
p363
aVINTAG298
p364
aVINTAG299
p365
aVINTAG296
p366
aVINTAG297
p367
aVINTAG397
p368
aVIT497
p369
aVINTAG481
p370
aVINTAG470A
p371
aVINTAG470B
p372
aVINTAG496
p373
aVINTAG497
p374
aVINTAG495
p375
aVAMST402
p376
aVINTAG498
p377
aVINTAG490
p378
aVINTAG300
p379
asVNuclear Engineering (NUCE)
p380
(lp381
VNUCE299
p382
aVNUCE399
p383
aVNUCE420
p384
aVNUCE431
p385
aVNUCE490
p386
aVNUCE494
p387
aVNUCE497
p388
aVNUCE496
p389
aVINART298
p390
aVNUCE310
p391
aVNUCE446
p392
aVNUCE309
p393
aVNUCE470
p394
aVNUCE403
p395
aVNUCE401
p396
aVNUCE301
p397
aVNUCE302
p398
aVNUCE451
p399
aVNUCE450
p400
aVNUCE408
p401
aVNUCE442
p402
asVChemical Engineering (CHE)
p403
(lp404
VCHE220
p405
aVCHE320
p406
aVCHE330
p407
aVCHE360
p408
aVCHE199
p409
aVCHE494
p410
aVCHE480W
p411
aVCHE230
p412
aVSTRNG423
p413
aVCHE452
p414
aVCHE320H
p415
aVCHE442
p416
aVCHE443
p417
aVOT295A
p418
aVCHE210H
p419
aVCHE399
p420
aVCHE455
p421
aVCHE432
p422
aVCHE470
p423
aVCHE297
p424
aVCHE296
p425
aVCHE438
p426
asVAnthropology (ANTH)
p427
(lp428
VANTH040
p429
aVANTH429
p430
aVANTH457
p431
aVANTH456
p432
aVANTH472
p433
aVANTH008
p434
aVANTH468
p435
aVANTH476
p436
aVANTH410
p437
aVANTH444
p438
aVANTH461
p439
aVANTH321
p440
aVANTH471
p441
aVTHEA487
p442
aVANTH215
p443
aVANTH146
p444
aVANTH375Q
p445
aVANTH120
p446
aVANTH299
p447
aVANTH492
p448
aVANTH240N
p449
asVComputer Science (CMPSC)
p450
(lp451
VCMPSC465
p452
aVCMPSC100
p453
aVCMPSC221H
p454
aVCMPSC471
p455
aVCMPSC397
p456
aVARCH332
p457
aVCMPSC430
p458
aVCMPSC436
p459
aVCMPSC431W
p460
aVCMPSC111
p461
aVCMPSC444
p462
aVPHOTO397
p463
aVCMPSC102
p464
aVCMPSC496
p465
aVCMPSC484
p466
aVCMPSC485
p467
aVCMPSC458
p468
aVCMPSC442
p469
aVCMPSC456
p470
aVCMPSC451
p471
aVCMPSC497E
p472
aVCMPSC483
p473
asVArts and Architecture Administrative (AAADM)
p474
(lp475
VAAADM122
p476
asVMathematics (MATH)
p477
(lp478
VMATH232
p479
aVMATH421
p480
aVMATH419
p481
aVMATH435
p482
aVMATH436
p483
aVLARCH156
p484
aVMATH404
p485
aVMATH411
p486
aVMATH418
p487
aVMATH022
p488
aVMATH485
p489
aVBESC407
p490
aVMATH200H
p491
aVMATH252
p492
aVMATH495
p493
aVMATH441
p494
aVMATH141H
p495
aVMATH140B
p496
aVMATH140E
p497
aVMATH017
p498
aVMATH111
p499
aVMATH406
p500
asVComparative Literature (CMLIT)
p501
(lp502
VCMLIT408
p503
aVCMLIT455
p504
aVCMLIT005
p505
aVCMLIT010
p506
aVCMLIT011
p507
aVCMLIT130
p508
aVCMLIT404
p509
aVCMLIT423
p510
aVCMLIT435
p511
aVCMLIT110
p512
aVCMLIT140
p513
aVCMLIT142
p514
aVCMLIT132
p515
aVCMLIT108
p516
aVCMLIT429
p517
aVCMLIT480
p518
aVCMLIT487
p519
aVASIA299
p520
aVCMLIT109
p521
aVCMLIT299
p522
aVCMLIT101
p523
asVFinance (FIN)
p524
(lp525
VFIN362
p526
aVFIN408H
p527
aVFIN340
p528
aVFIN407
p529
aVFIN460
p530
aVFIN471
p531
aVHIST496A
p532
aVFIN475
p533
aVFIN494H
p534
aVFIN306
p535
aVFIN495A
p536
aVFIN419
p537
aVFIN428
p538
aVFIN427
p539
aVFIN296
p540
aVFIN297
p541
aVFIN494
p542
aVFIN495
p543
aVFIN489
p544
aVFIN497
p545
aVFIN408
p546
aVTHEA497D
p547
asVPetroleum and Natural Gas Engineering (PNG)
p548
(lp549
VPNG450
p550
aVPNG301
p551
aVPNG456
p552
aVPNG457
p553
aVPNG420
p554
aVPNG475
p555
aVPNG458
p556
aVPNG459
p557
aVPNG420H
p558
aVPNG406
p559
aVPNG410
p560
aVPNG496
p561
aVPNG497
p562
aVPNG480
p563
aVPNG491
p564
aVPNG489
p565
aVPNG497F
p566
aVPNG497G
p567
aVPNG497D
p568
aVPNG497E
p569
asVArts and Architecture (AA)
p570
(lp571
VAA410
p572
aVAA411
p573
aVAA401
p574
aVAA110
p575
aVAA106
p576
aVAA399
p577
aVAA105
p578
aVAA296
p579
aVAA297
p580
aVAA494H
p581
aVAA121
p582
aVAA199
p583
aVAA099
p584
aVAA323
p585
aVAA324
p586
aVAA325
p587
aVAA494
p588
aVAA495
p589
aVAA496
p590
aVAA310
p591
asVSwahili (SWA)
p592
(lp593
VSWA494
p594
aVSWA496
p595
aVSWA199
p596
aVSWA002
p597
aVSWA296
p598
aVSWA295
p599
aVSWA003
p600
aVSWA494H
p601
aVSWA001
p602
asVHumanities and Social Sciences (HSS)
p603
(lp604
VLATIN052
p605
aVHSS197
p606
aVASIA474
p607
aVHSS497
p608
aVHSS496
p609
aVHSS297
p610
aVHSS296
p611
asVMineral Processing (MNPR)
p612
(lp613
VMNPR401
p614
aVMNPR413
p615
aVMNPR301
p616
aVMNPR496
p617
aVMNPR401H
p618
aVEDSGN468
p619
aVMNPR426
p620
asVIndustrial Engineering Technology (IET)
p621
(lp622
VIET297
p623
aVIET109
p624
aVIET402
p625
aVIET308
p626
aVENGL179
p627
aVIET101
p628
aVIET311
p629
aVIET215
p630
aVIET101H
p631
aVIET216
p632
aVIET321
p633
aVIET333
p634
asVEnglish as a Second Language (ESL)
p635
(lp636
VVBSC423
p637
aVESL118G
p638
aVCAS496H
p639
aVESL116G
p640
aVESL117G
p641
aVESL114G
p642
aVESL115G
p643
aVESL297
p644
aVESL015
p645
aVESL004
p646
aVESL005
p647
asVSoil Science (SOILS)
p648
(lp649
VSOILS490
p650
aVSOILS494H
p651
aVSOILS101
p652
aVSOILS102
p653
aVSOILS071
p654
aVSOILS401
p655
aVSOILS402
p656
aVSOILS403
p657
aVSOILS404
p658
aVSOILS416
p659
aVSOILS420
p660
aVSOILS296
p661
aVSOILS419
p662
aVSOILS418
p663
aVSOILS405
p664
aVART260
p665
aVSOILS422
p666
aVSOILS412W
p667
aVSOILS496
p668
aVSOILS495
p669
aVSOILS494
p670
asVPolitical Science (PLSC)
p671
(lp672
VPLSC434
p673
aVPLSC438
p674
aVPLSC442
p675
aVPLSC010
p676
aVMUSIC395C
p677
aVPLSC488
p678
aVKINES135
p679
aVPLSC429
p680
aVPLSC412
p681
aVPLSC481
p682
aVPLSC480
p683
aVPLSC427
p684
aVPLSC425
p685
aVPLSC431
p686
aVPLSC014
p687
aVPLSC433
p688
aVPLSC130
p689
aVPLSC415
p690
aVPLSC467
p691
aVPLSC465
p692
aVPLSC110
p693
aVPLSC197
p694
asVInternational Business (IB)
p695
(lp696
VIB397
p697
aVIB290
p698
aVIB297
p699
aVIB296
p700
aVIB299
p701
aVUKR002
p702
aVIB399
p703
aVIB403
p704
aVIB460
p705
aVIB404
p706
aVSPAN497F
p707
aVIB494H
p708
aVIB470
p709
aVIB450
p710
aVIB440
p711
aVIB303
p712
aVIB199
p713
aVIB480
p714
aVIB494
p715
aVIB497
p716
aVIB496
p717
asVSoftware Engineering (SWENG)
p718
(lp719
VSWENG396
p720
aVSWENG395
p721
aVSWENG496
p722
aVSWENG452
p723
aVSWENG411
p724
aVSWENG465
p725
aVSWENG421
p726
aVSWENG431
p727
aVSWENG400
p728
aVSWENG497C
p729
aVSWENG497A
p730
aVSWENG495
p731
aVSWENG494
p732
aVSWENG497
p733
aVSWENG311
p734
aVSWENG480
p735
aVSWENG481
p736
asVMusic (MUSIC)
p737
(lp738
VMUSIC182
p739
aVMUSIC190
p740
aVMUSIC425
p741
aVMUSIC420
p742
aVMUSIC254D
p743
aVMUSIC461
p744
aVMUSIC416
p745
aVMUSIC462
p746
aVMUSIC395
p747
aVMUSIC388
p748
aVMUSIC374
p749
aVMUSIC474
p750
aVMUSIC110
p751
aVMUSIC331
p752
aVMUSIC345
p753
aVMUSIC332
p754
aVMUSIC341
p755
aVMUSIC254C
p756
aVMUSIC251C
p757
aVMUSIC008H
p758
asVManagement Information Systems (MIS)
p759
(lp760
VMETEO482
p761
aVMIS391
p762
aVMIS390
p763
aVMIS296
p764
aVMIS413
p765
aVMIS465
p766
aVMIS405
p767
aVMIS404
p768
aVMIS461
p769
aVMIS415
p770
aVMIS420
p771
aVMIS430
p772
aVMIS336
p773
aVMIS448
p774
aVMIS445
p775
aVMIS447
p776
aVMIS496D
p777
aVMIS103
p778
aVMIS496A
p779
aVMIS307
p780
aVMIS495
p781
asVMechanical Engineering (ME)
p782
(lp783
VME101
p784
aVME360H
p785
aVME201
p786
aVCAMS099
p787
aVME320
p788
aVME347
p789
aVME300
p790
aVME480
p791
aVME403
p792
aVME402
p793
aVME400
p794
aVME375
p795
aVME367
p796
aVME365
p797
aVME345W
p798
aVME465
p799
aVME102
p800
aVME299
p801
aVME461
p802
aVME445
p803
aVME455
p804
asVFuel Science (FSC)
p805
(lp806
VFSC401
p807
aVFSC432
p808
aVFSC431
p809
aVFSC494
p810
aVFSC494H
p811
aVFSC496
p812
asVLibrary Studies (LST)
p813
(lp814
VLST490
p815
aVLST370
p816
aVLST496
p817
aVLST083
p818
aVLST301
p819
aVLST100
p820
aVNAVSC302
p821
aVLST495
p822
aVENGL181D
p823
asVAfrican American Studies (AFAM)
p824
(lp825
VAFAM101
p826
aVAFAM100
p827
aVMET341
p828
aVAFAM126
p829
aVAFAM494H
p830
aVAFAM114N
p831
aVAFAM208
p832
aVAFAM083
p833
aVAFAM139
p834
aVAFAM146
p835
aVAFAM250
p836
aVAFAM212
p837
aVAFAM495
p838
aVAFAM494
p839
aVAFAM496
p840
aVAFAM410
p841
aVAFAM412
p842
aVAFAM432
p843
aVAFAM431
p844
aVAFAM197
p845
aVAFAM297
p846
aVLER475
p847
asVWildlife (WILDL)
p848
(lp849
VWILDL208M
p850
aVWILDL211
p851
aVWILDL207
p852
aVWILDL213
p853
aVWILDL106T
p854
aVWILDL208
p855
aVWILDL209
p856
aVWILDL106
p857
aVWILDL204
p858
aVWILDL101
p859
aVWILDL295
p860
aVWILDL297
p861
aVWILDL296
p862
aVWILDL103
p863
asVEngineering Mechanics (EMCH)
p864
(lp865
VEMCH416
p866
aVEMCH473
p867
aVEMCH407
p868
aVEMCH471
p869
aVEMCH403
p870
aVEMCH397
p871
aVEMCH297
p872
aVEMCH296
p873
aVEMCH212H
p874
aVEMCH315
p875
aVWWNDS470
p876
aVEMCH480
p877
aVTHEA210
p878
aVEMCH213D
p879
aVEMCH446
p880
aVEMCH213
p881
aVEMCH316
p882
aVEMCH212
p883
aVEMCH211
p884
aVEMCH210
p885
aVEMCH497
p886
aVEMCH210H
p887
asVElectro-\u200bMechanical Engineering Technology (EMET)
p888
(lp889
VEMET497
p890
aVEMET495
p891
aVEMET394
p892
aVEMET395
p893
aVEMET396
p894
aVEMET397
p895
aVEMET430
p896
aVEMET440
p897
aVEMET222
p898
aVEMET225
p899
aVEMET325
p900
aVEMET330
p901
aVEMET326
p902
aVFR401
p903
aVEMET100
p904
aVEMET215
p905
aVEMET405
p906
aVEMET432
p907
aVEMET350
p908
aVSOC403
p909
aVEMET402
p910
aVEMET403
p911
asVEntrepreneurship (ENTR)
p912
(lp913
VENTR300
p914
aVENTR440
p915
aVENTR320
p916
aVPHIL127
p917
aVENTR497
p918
aVENTR496
p919
aVENTR410
p920
aVENTR430
p921
aVENTR400
p922
asVAnimal Science (ANSC)
p923
(lp924
VANSC213
p925
aVANSC317
p926
aVANSC395
p927
aVANSC309
p928
aVANSC308
p929
aVANSC405
p930
aVANSC322
p931
aVANSC429
p932
aVANSC424
p933
aVANSC410
p934
aVANSC426
p935
aVANSC427
p936
aVANSC420
p937
aVANSC421
p938
aVANSC417
p939
aVANSC301H
p940
aVANSC437
p941
aVANSC100
p942
aVANSC497
p943
aVANSC397
p944
asVHigher Education (HIED)
p945
(lp946
VHIED497
p947
aVEARTH100
p948
aVHIED490
p949
aVPSYCH231
p950
aVHIED302
p951
aVHIED303
p952
aVHIED397
p953
aVHIED396
p954
asVEngineering Science (ESC)
p955
(lp956
VESC455
p957
aVESC314
p958
aVESC450
p959
aVESC213
p960
aVESC211
p961
aVESC494
p962
aVESC460W
p963
aVESC261
p964
aVESC497
p965
aVESC411
p966
aVESC097
p967
aVESC414
p968
aVESC407
p969
aVESC406
p970
aVESC296
p971
aVESC484
p972
aVESC482
p973
aVESC121
p974
aVESC122
p975
aVESC123
p976
asVCurriculum and Instruction (CI)
p977
(lp978
VCI210
p979
aVCI297
p980
aVCI496H
p981
aVCI200
p982
aVCI444
p983
aVCI497D
p984
aVCI495D
p985
aVCI495E
p986
aVCI495F
p987
aVCI497C
p988
aVCI250
p989
aVCI497
p990
aVCI495
p991
aVCI496
p992
aVCI295B
p993
aVCI400
p994
aVCI405
p995
aVCI296H
p996
aVCI495B
p997
aVCI280
p998
asVMedieval Studies (MEDVL)
p999
(lp1000
VANTH022
p1001
aVMEDVL413
p1002
aVMEDVL411
p1003
aVMEDVL299
p1004
aVMEDVL399
p1005
aVMEDVL395
p1006
aVMEDVL294
p1007
aVMEDVL107
p1008
aVMEDVL108
p1009
aVMEDVL108H
p1010
aVARCH331
p1011
aVMEDVL199
p1012
aVMEDVL497
p1013
aVMEDVL496
p1014
aVMEDVL495
p1015
aVMEDVL494
p1016
aVMEDVL494H
p1017
aVMEDVL197
p1018
asVMusic-\u200bStrings (STRNG)
p1019
(lp1020
VSTRNG122
p1021
aVSTRNG132
p1022
aVSTRNG133
p1023
aVSTRNG171
p1024
aVSTRNG174
p1025
aVSTRNG430
p1026
aVSTRNG481
p1027
aVSTRNG333
p1028
aVSTRNG120
p1029
aVSTRNG272
p1030
aVSTRNG270
p1031
aVSTRNG232
p1032
aVSTRNG231
p1033
aVSTRNG230
p1034
aVSTRNG471
p1035
aVSTRNG470
p1036
aVSTRNG431
p1037
aVSTRNG372
p1038
aVSTRNG111
p1039
aVSTRNG282
p1040
asVCounselor Education (CNED)
p1041
(lp1042
VCNED301
p1043
aVCNED303
p1044
aVCNED304
p1045
aVCNED198
p1046
aVCNED422
p1047
aVCNED100
p1048
aVCNED430
p1049
aVCNED431
p1050
aVCNED200
p1051
aVCAS452
p1052
aVCE370
p1053
aVCNED298
p1054
aVCNED296
p1055
aVCNED420
p1056
aVCNED423
p1057
aVCNED404
p1058
aVCNED397
p1059
aVCNED424
p1060
aVCNED401
p1061
aVCNED497
p1062
aVCNED297
p1063
aVCNED416
p1064
asVBiological Science (BISC)
p1065
(lp1066
VBISC004
p1067
aVBISC004H
p1068
aVBISC002
p1069
aVBISC003
p1070
aVKINES295
p1071
aVBISC001
p1072
asVBusiness Administration (BA)
p1073
(lp1074
VBA412
p1075
aVBA199
p1076
aVBA420
p1077
aVBA421
p1078
aVBA304
p1079
aVBA303H
p1080
aVBA397
p1081
aVBA297
p1082
aVBA322H
p1083
aVBA242H
p1084
aVBA301H
p1085
aVBA497A
p1086
aVBA303
p1087
aVBA442
p1088
aVBA250
p1089
aVBA495A
p1090
aVBA241
p1091
aVBA100S
p1092
aVBA297C
p1093
aVBA364
p1094
asVReligious Studies (RLST)
p1095
(lp1096
VRLST137
p1097
aVRLST070
p1098
aVRLST130
p1099
aVRLST412
p1100
aVRLST103H
p1101
aVRLST461
p1102
aVRLST121
p1103
aVRLST420
p1104
aVRLST120
p1105
aVRLST422
p1106
aVRLST012
p1107
aVRLST110
p1108
aVRLST113
p1109
aVRLST090
p1110
aVRLST104
p1111
aVCMLIT116
p1112
aVRLST103
p1113
aVRLST001
p1114
aVRLST107
p1115
aVRLST494H
p1116
aVRLST478
p1117
asVChild Maltreatment and Advocacy Studies (CMAS)
p1118
(lp1119
VCMAS258
p1120
aVCED201
p1121
aVCMAS493
p1122
aVCMAS465
p1123
aVARCH210
p1124
aVCMAS466
p1125
asVSocial Science (SOSC)
p1126
(lp1127
VSOSC492
p1128
aVSOSC480
p1129
aVSOSC481
p1130
aVSOSC001
p1131
asVCriminology (CRIM)
p1132
(lp1133
VCRIM497A
p1134
aVCRIM100
p1135
aVCRIM298
p1136
aVCRIM297
p1137
aVBA242H
p1138
aVCRIM201
p1139
aVMETEO419
p1140
aVCRIM496
p1141
aVCRIM480
p1142
aVCRIM481
p1143
aVCRIM482
p1144
aVCRIM430
p1145
aVCRIM433
p1146
aVCRIM432
p1147
aVCRIM412
p1148
aVCRIM249
p1149
aVCRIM453
p1150
aVCRIM441
p1151
aVCRIM424
p1152
aVCRIM425
p1153
aVCRIM250W
p1154
aVCRIM395
p1155
asVForest Technology (FORT)
p1156
(lp1157
VFORT297
p1158
aVFORT296
p1159
aVFORT295
p1160
aVMUSIC431
p1161
aVFORT110
p1162
aVFORT100
p1163
aVFORT150
p1164
aVFORT140
p1165
aVFORT105
p1166
aVFORT299
p1167
aVFORT240
p1168
aVFORT250
p1169
aVFORT140H
p1170
aVFORT220
p1171
aVFORT260
p1172
aVFORT170
p1173
aVSTRNG471
p1174
aVFORT160
p1175
aVFORT175
p1176
aVFORT230
p1177
aVFORT200
p1178
aVFORT210
p1179
asVGaming (GAME)
p1180
(lp1181
VGAME434
p1182
aVGAME495
p1183
aVGAME420
p1184
aVGAME460
p1185
aVGAME140
p1186
aVGAME220
p1187
aVGAME450
p1188
aVGAME251
p1189
aVGAME250
p1190
aVGAME480
p1191
aVGAME160
p1192
aVGAME180N
p1193
asVDigital Media, Arts, and Technology (DIGIT)
p1194
(lp1195
VDIGIT400
p1196
aVDIGIT409
p1197
aVDIGIT100
p1198
aVDIGIT410
p1199
aVDIGIT110
p1200
aVDIGIT430
p1201
aVDIGIT494
p1202
aVDIGIT495
p1203
aVDIGIT210
p1204
aVARCH492H
p1205
asVSustainability (SUST)
p1206
(lp1207
VSUST200
p1208
aVSUST295
p1209
aVSUST496
p1210
aVSUST495
p1211
aVSUST150N
p1212
asVData Sciences (DS)
p1213
(lp1214
VDS397
p1215
aVDS310
p1216
aVDS197
p1217
aVDS220
p1218
aVDS199
p1219
aVECON304
p1220
aVDS402
p1221
aVDS120
p1222
aVDS440
p1223
aVDS300
p1224
aVDS320
p1225
aVDS299
p1226
aVDS399
p1227
aVDS396
p1228
aVDS410
p1229
aVDS294
p1230
aVDS297
p1231
aVDS296
p1232
aVCNED496
p1233
aVDS497
p1234
aVDS496
p1235
aVDS494
p1236
asVEnergy and Mineral Engineering (EME)
p1237
(lp1238
VEME466
p1239
aVEME407
p1240
aVEME460
p1241
aVEME444
p1242
aVANTH448
p1243
aVEME301
p1244
aVEME303
p1245
asVClassics and Ancient Mediterranean Studies (CAMS)
p1246
(lp1247
VCAMS200
p1248
aVCAMS471
p1249
aVCAMS070
p1250
aVCAMS150
p1251
aVCAMS050
p1252
aVCAMS480
p1253
aVCAMS420
p1254
aVCAMS410
p1255
aVCAMS450
p1256
aVCAMS493
p1257
aVCAMS044H
p1258
aVCAMS399
p1259
aVCAMS012
p1260
aVCAMS010
p1261
aVCAMS001
p1262
aVCAMS140
p1263
aVCAMS004
p1264
aVCAMS010U
p1265
aVCAMS425
p1266
aVCAMS113
p1267
asVBiochemistry and Molecular Biology (BMB)
p1268
(lp1269
VBMB402
p1270
aVBMB401
p1271
aVBMB400
p1272
aVBMB445W
p1273
aVBMB001
p1274
aVBMB428H
p1275
aVBMB450
p1276
aVBMB474
p1277
aVBMB460
p1278
aVBMB211
p1279
aVBMB432
p1280
aVBMB399
p1281
aVBMB398
p1282
aVBMB430
p1283
aVBMB221
p1284
aVBMB435
p1285
aVBMB199
p1286
aVBMB437
p1287
aVBMB443W
p1288
aVBMB496
p1289
asVArt History (ARTH)
p1290
(lp1291
VARTH426
p1292
aVARTH452
p1293
aVARTH304
p1294
aVARTH450
p1295
aVARTH420
p1296
aVARTH302
p1297
aVARTH202
p1298
aVARTH464
p1299
aVARTH409
p1300
aVARTH120
p1301
aVARTH001
p1302
aVARTH435
p1303
aVARTH470H
p1304
aVARTH416
p1305
aVARTH305
p1306
aVARTH350
p1307
aVARTH447
p1308
aVARTH495H
p1309
aVARTH325
p1310
aVARTH107N
p1311
asVAsian American Studies (AAS)
p1312
(lp1313
VAAS100
p1314
aVAAS428
p1315
asVInternship (INTSP)
p1316
(lp1317
VINTSP295C
p1318
aVINTSP295B
p1319
aVINTSP370
p1320
aVBIOL425
p1321
aVINTSP495
p1322
asVEntomology (ENT)
p1323
(lp1324
VENT314
p1325
aVENT450
p1326
aVENT445
p1327
aVENT317
p1328
aVENT316
p1329
aVENT202
p1330
aVENT313
p1331
aVENT496
p1332
aVENT497
p1333
aVENT425
p1334
aVENT424
p1335
aVENT420
p1336
aVENT496H
p1337
aVENT402
p1338
aVENT397
p1339
aVENT410
p1340
aVENT296
p1341
aVENT297
p1342
aVENT222H
p1343
aVENT222
p1344
aVRM401
p1345
aVCRIM298
p1346
asVPsychology (PSYCH)
p1347
(lp1348
VCAMS471
p1349
aVPSYCH260
p1350
aVPSYCH300
p1351
aVPSYCH268
p1352
aVPSYCH489
p1353
aVPSYCH494
p1354
aVPSYCH495
p1355
aVPSYCH490
p1356
aVPSYCH438
p1357
aVECON494H
p1358
aVPSYCH424
p1359
aVPSYCH426
p1360
aVPSYCH422
p1361
aVPSYCH414
p1362
aVPSYCH294
p1363
aVPSYCH404
p1364
aVPSYCH470
p1365
aVPSYCH414H
p1366
aVPSYCH477
p1367
aVPSYCH100
p1368
aVPSYCH445
p1369
aVPSYCH299
p1370
asVAfrican and African American Studies (AAAS)
p1371
(lp1372
VKINES466
p1373
aVAAAS494
p1374
aVARAB295
p1375
aVAAAS397
p1376
aVAAAS003
p1377
asVBiological Engineering (BE)
p1378
(lp1379
VAFAM102
p1380
aVBE477
p1381
aVKINES465
p1382
aVBE494H
p1383
aVBE464
p1384
aVBE495
p1385
aVBE494
p1386
aVBE487
p1387
aVBE001
p1388
aVBE308
p1389
aVBE307
p1390
aVBE306
p1391
aVBE304
p1392
aVBE303
p1393
aVBE302
p1394
aVBE301
p1395
aVBE391
p1396
aVBE392
p1397
aVBE465
p1398
aVBE462
p1399
aVBE461
p1400
aVBE468
p1401
asVEarth and Mineral Sciences (EMSC)
p1402
(lp1403
VEMSC240N
p1404
aVEMSC121
p1405
aVEMSC101
p1406
aVEMSC420
p1407
aVEMSC441
p1408
aVEMSC440
p1409
aVEMSC494H
p1410
aVEMSC296
p1411
aVEMSC470
p1412
aVSOILS401
p1413
aVEMSC494
p1414
aVEMSC150
p1415
aVEMSC496
p1416
aVEMSC497G
p1417
aVEMSC100S
p1418
aVEMSC302
p1419
aVDSM295A
p1420
asVSpanish (SPAN)
p1421
(lp1422
VSPAN314
p1423
aVSPAN410H
p1424
aVMUSIC088
p1425
aVSPAN439
p1426
aVSPAN355
p1427
aVSPAN417
p1428
aVSPAN100B
p1429
aVSPAN220
p1430
aVSPAN497D
p1431
aVFOR488
p1432
aVSPAN110
p1433
aVSPAN497H
p1434
aVSPAN496H
p1435
aVSPAN083
p1436
aVSPAN440
p1437
aVSPAN253W
p1438
aVSPAN488
p1439
aVSPAN132
p1440
aVSPAN490
p1441
aVSPAN051
p1442
aVSPAN053
p1443
aVSPAN412H
p1444
asVEnergy and Geo-\u200bEnvironmental Engineering (EGEE)
p1445
(lp1446
VEGEE211
p1447
aVEGEE302
p1448
aVEGEE496
p1449
aVEGEE497
p1450
aVEGEE395
p1451
aVEGEE442
p1452
aVEGEE401
p1453
aVEGEE102H
p1454
aVEGEE101
p1455
aVEGEE102
p1456
aVEGEE110
p1457
aVEGEE012
p1458
aVEGEE101H
p1459
aVEGEE299
p1460
aVCHE446
p1461
aVEGEE464
p1462
aVEGEE470
p1463
aVEGEE430
p1464
aVEGEE455
p1465
aVEGEE295
p1466
aVEGEE436
p1467
aVMATSE421
p1468
asVMathematics Education (MTHED)
p1469
(lp1470
VMTHED428
p1471
aVMTHED429
p1472
aVMTHED420
p1473
aVMTHED412
p1474
aVMTHED460
p1475
aVMTHED433
p1476
aVMTHED432
p1477
aVMTHED431
p1478
aVMTHED298
p1479
aVMTHED427
p1480
aVMTHED411
p1481
aVMTHED430
p1482
aVMTHED496H
p1483
aVMTHED197
p1484
aVMTHED498
p1485
aVCRIMJ441
p1486
aVMTHED497
p1487
aVMTHED496
p1488
asVEconomics (ECON)
p1489
(lp1490
VECON473
p1491
aVECON407
p1492
aVECON471
p1493
aVECON014
p1494
aVECON302
p1495
aVECON448
p1496
aVECON106H
p1497
aVECON409
p1498
aVECON404W
p1499
aVECON299
p1500
aVECON408
p1501
aVECON425
p1502
aVECON452
p1503
aVECON466W
p1504
aVECON430
p1505
aVECON407W
p1506
aVECON497
p1507
aVECON496A
p1508
aVCI295A
p1509
aVECON333
p1510
aVECON351
p1511
aVCHNS455
p1512
asVEngineering Design (EDSGN)
p1513
(lp1514
VEDSGN460
p1515
aVEDSGN420
p1516
aVEDSGN468
p1517
aVEDSGN452
p1518
aVEDSGN453
p1519
aVEDSGN403
p1520
aVEDSGN015
p1521
aVEDSGN401
p1522
aVEDSGN010
p1523
aVEDSGN399
p1524
aVEDSGN012
p1525
aVEDSGN100S
p1526
aVEDSGN130
p1527
aVEDSGN100
p1528
aVEDSGN395
p1529
aVEDSGN494
p1530
aVEDSGN496
p1531
aVEDSGN497
p1532
aVEDSGN294
p1533
aVEDSGN011
p1534
asVMicrobiology (MICRB)
p1535
(lp1536
VMICRB450
p1537
aVMICRB399
p1538
aVMICRB421W
p1539
aVMICRB432
p1540
aVMICRB412
p1541
aVMICRB413
p1542
aVMICRB252
p1543
aVMICRB201H
p1544
aVMICRB447
p1545
aVMICRB201
p1546
aVMICRB202
p1547
aVMICRB151D
p1548
aVMICRB496
p1549
aVMICRB199
p1550
aVMICRB480
p1551
aVMICRB497A
p1552
aVMICRB405E
p1553
aVMICRB405D
p1554
aVPPEM427
p1555
aVMICRB405B
p1556
aVMICRB151W
p1557
asVHonors (HONOR)
p1558
(lp1559
VHONOR201
p1560
aVBISC004
p1561
aVHONOR401
p1562
aVLER401
p1563
aVHONOR496
p1564
aVHONOR297
p1565
aVHONOR494
p1566
aVHONOR493
p1567
aVHONOR301
p1568
aVHONOR495
p1569
asVArchitectural Engineering Technology (AET)
p1570
(lp1571
VAET206
p1572
aVAET214
p1573
aVAET204
p1574
aVAET210
p1575
aVAET207
p1576
aVAET228
p1577
aVAET229
p1578
aVAET215
p1579
aVAET121
p1580
aVAET212
p1581
aVAET227
p1582
aVAET297
p1583
aVAET296
p1584
aVAET101
p1585
aVAET113
p1586
aVAET103
p1587
aVAET102
p1588
asVGerman (GER)
p1589
(lp1590
VGER494H
p1591
aVGER197
p1592
aVGER189
p1593
aVGER199
p1594
aVGER053
p1595
aVGER496B
p1596
aVGER302
p1597
aVGER301
p1598
aVGER083
p1599
aVGER497
p1600
aVGER157
p1601
aVGER411
p1602
aVGER100
p1603
aVCAS206
p1604
aVGER408
p1605
aVGER399
p1606
aVGER011
p1607
aVGER143H
p1608
aVGER440
p1609
aVGER431
p1610
aVGER430
p1611
asVPlant Pathology and Environmental Microbiology (PPEM)
p1612
(lp1613
VPPEM405
p1614
aVMGMT424
p1615
aVPPEM496H
p1616
aVPPEM120
p1617
aVPPEM318
p1618
aVPPEM225
p1619
aVPPEM300
p1620
aVPPEM496
p1621
aVPPEM497
p1622
aVPPEM412
p1623
aVPPEM397
p1624
aVPPEM416
p1625
aVPPEM440
p1626
aVPPEM296
p1627
aVPPEM318H
p1628
aVPPEM430
p1629
aVPPEM417W
p1630
aVPPEM454
p1631
aVPPEM427
p1632
aVPPEM425
p1633
aVPPEM297
p1634
asVLanguages (Less Commonly Taught) (LANG)
p1635
(lp1636
VLANG496
p1637
aVLANG497
p1638
aVLANG199
p1639
aVLANG051
p1640
aVLANG052
p1641
aVLANG053
p1642
aVLANG296
p1643
aVLANG099
p1644
aVLANG197
p1645
aVLANG196
p1646
aVLANG196A
p1647
aVLANG196B
p1648
asVCommunication Arts and Sciences (CAS)
p1649
(lp1650
VCAS296A
p1651
aVLA083
p1652
aVTHEA298
p1653
aVCAS280W
p1654
aVCAS252
p1655
aVCAS399
p1656
aVCAS415
p1657
aVCAS403
p1658
aVCAS199
p1659
aVCAS438
p1660
aVCAS411
p1661
aVCAS395
p1662
aVCAS483
p1663
aVCAS209
p1664
aVCAS301
p1665
aVCAS493
p1666
aVCAS195
p1667
aVCAS214
p1668
aVCAS222N
p1669
aVCAS272
p1670
aVCAS494H
p1671
aVCAS299
p1672
asVArts Administration (ARTSA)
p1673
(lp1674
VARTSA495A
p1675
aVARTSA495B
p1676
aVARTSA495
p1677
aVARTSA301
p1678
aVCMPSC483
p1679
aVARTSA404
p1680
aVAE471
p1681
aVARTSA401
p1682
aVARTSA403
p1683
aVARTSA402
p1684
asVMusic-\u200bPercussion (PERCN)
p1685
(lp1686
VPERCN180
p1687
aVPERCN220
p1688
aVPERCN230
p1689
aVPERCN270
p1690
aVPERCN130
p1691
aVPERCN330
p1692
aVPERCN120
p1693
aVPERCN320
p1694
aVPERCN370
p1695
aVPERCN110
p1696
aVPERCN100
p1697
aVIST496
p1698
aVSPLED497
p1699
aVPERCN380
p1700
aVPERCN170
p1701
aVPERCN420
p1702
aVPERCN430
p1703
aVPERCN480
p1704
aVPERCN280
p1705
aVPERCN470
p1706
asVMusic-\u200bKeyboard (KEYBD)
p1707
(lp1708
VKEYBD100
p1709
aVKEYBD101
p1710
aVKEYBD370
p1711
aVKEYBD430
p1712
aVKEYBD120
p1713
aVKEYBD220
p1714
aVKEYBD470
p1715
aVKEYBD380
p1716
aVKEYBD230
p1717
aVKEYBD110
p1718
aVKEYBD180
p1719
aVKEYBD121
p1720
aVKEYBD480
p1721
aVKEYBD420
p1722
aVBIOL430
p1723
aVKEYBD280
p1724
aVKEYBD170
p1725
aVKEYBD130
p1726
aVKEYBD270
p1727
aVKEYBD320
p1728
aVKEYBD330
p1729
asVHorticulture (HORT)
p1730
(lp1731
VHORT420
p1732
aVHORT432
p1733
aVHORT408
p1734
aVFR351H
p1735
aVHORT455
p1736
aVHORT101
p1737
aVHORT250
p1738
aVHORT402
p1739
aVHORT410
p1740
aVHORT390
p1741
aVHORT464
p1742
aVHORT459
p1743
aVHORT296
p1744
aVHORT138
p1745
aVHORT269
p1746
aVHORT232
p1747
aVHORT301
p1748
aVHORT131
p1749
aVHORT120
p1750
aVHORT407
p1751
aVHORT150N
p1752
asVChemistry (CHEM)
p1753
(lp1754
VCHEM316
p1755
aVCHEM427
p1756
aVCHEM112H
p1757
aVCHEM199
p1758
aVCHEM474
p1759
aVCHEM227
p1760
aVCHEM213M
p1761
aVCHEM448
p1762
aVCHEM213H
p1763
aVFIN496A
p1764
aVCHEM005
p1765
aVCHEM443
p1766
aVCHEM457
p1767
aVCHEM408
p1768
aVCHEM452
p1769
aVCHEM112
p1770
aVCHEM412
p1771
aVCHEM297
p1772
aVCHEM106
p1773
aVCHEM113
p1774
aVCHEM294H
p1775
asVAir Force (AIR)
p1776
(lp1777
VAIR352
p1778
aVAIR351
p1779
aVAIR151
p1780
aVAIR152
p1781
aVAIR252
p1782
aVAIR251
p1783
aVARCH451
p1784
aVAIR451
p1785
aVAIR452
p1786
asVFood Science (FDSC)
p1787
(lp1788
VFDSC409
p1789
aVFDSC402
p1790
aVFDSC105
p1791
aVFDSC497
p1792
aVFDSC407
p1793
aVFDSC494H
p1794
aVFDSC413
p1795
aVFDSC414
p1796
aVFDSC415
p1797
aVFDSC405
p1798
aVFDSC404
p1799
aVFDSC430
p1800
aVFDSC280
p1801
aVFDSC422
p1802
aVFDSC207
p1803
aVFDSC206
p1804
aVFDSC297
p1805
aVFDSC460
p1806
aVARCH412
p1807
aVFDSC444
p1808
aVFDSC208
p1809
asVSlavic (SLAV)
p1810
(lp1811
VSLAV296
p1812
aVSLAV494
p1813
aVSLAV199
p1814
aVSLAV494H
p1815
aVSLAV099
p1816
asVRisk Management (RM)
p1817
(lp1818
VRM399
p1819
aVRM420
p1820
aVRM440
p1821
aVRM424
p1822
aVRM425
p1823
aVMETEO495D
p1824
aVRM494H
p1825
aVRM405
p1826
aVRM410
p1827
aVRM497
p1828
aVRM303
p1829
aVRM320W
p1830
aVRM301
p1831
aVRM214
p1832
aVRM450
p1833
aVRM330W
p1834
aVRM460
p1835
aVRM297
p1836
aVRM296
p1837
aVRM412
p1838
aVJST496
p1839
aVRM302
p1840
asVWorld Languages Education (WLED)
p1841
(lp1842
VWLED483
p1843
aVWLED412
p1844
aVWLED411
p1845
aVWLED444
p1846
aVWLED495
p1847
aVWLED412M
p1848
aVWLED495B
p1849
aVWLED495C
p1850
aVWLED399A
p1851
aVWLED300
p1852
aVWLED400
p1853
aVAED199
p1854
asVArchitecture (ARCH)
p1855
(lp1856
VNURS464
p1857
aVCMLIT130
p1858
aVARCH491
p1859
aVARCH481
p1860
aVARCH480
p1861
aVARCH495
p1862
aVARCH496
p1863
aVARCH497
p1864
aVARCH497B
p1865
aVARCH432
p1866
aVARCH130A
p1867
aVARCH100
p1868
aVARCH312
p1869
aVARCH210
p1870
aVARCH496H
p1871
aVARCH443
p1872
aVARCH451
p1873
aVARCH412
p1874
aVARCH497D
p1875
aVARCH121
p1876
aVARCH122
p1877
aVARCH297
p1878
asVNutrition (NUTR)
p1879
(lp1880
VNUTR320
p1881
aVNUTR199
p1882
aVNUTR497
p1883
aVNUTR496
p1884
aVNUTR495
p1885
aVNUTR494
p1886
aVNUTR386
p1887
aVNUTR391
p1888
aVNUTR120H
p1889
aVNUTR399
p1890
aVNUTR446
p1891
aVNUTR410
p1892
aVWWNDS221
p1893
aVNUTR430
p1894
aVNUTR425
p1895
aVNUTR359
p1896
aVNUTR370
p1897
aVNUTR453
p1898
aVNUTR360
p1899
aVNUTR451
p1900
aVNUTR252
p1901
asVCybersecurity Analytics and Operations (CYBER)
p1902
(lp1903
VSTS100H
p1904
aVCYBER342W
p1905
aVPHIL001
p1906
aVCYBER262
p1907
aVCYBER100
p1908
aVCYBER440
p1909
aVCYBER100S
p1910
aVCYBER362
p1911
aVCYBER366
p1912
asVAgriculture (AG)
p1913
(lp1914
VAG100
p1915
aVAG494
p1916
aVAG495
p1917
aVAG113
p1918
aVSTRNG423
p1919
aVAG160S
p1920
aVAG301
p1921
aVAG150
p1922
aVAG495A
p1923
aVAG160
p1924
aVAG297
p1925
aVAG294
p1926
aVAG422
p1927
aVAG494H
p1928
aVAG400
p1929
asVRural Sociology (RSOC)
p1930
(lp1931
VRSOC011
p1932
aVPHYS410
p1933
aVRSOC497
p1934
aVRSOC496
p1935
aVBIOL498
p1936
asVSocial Studies Education (SSED)
p1937
(lp1938
VSSED200
p1939
aVSSED470
p1940
aVSSED411
p1941
aVSSED496
p1942
aVSSED497
p1943
aVSSED412W
p1944
aVSTRNG172
p1945
aVSSED430W
p1946
aVENGL140H
p1947
asVBehavioral Sciences -\u200b CA (BESC)
p1948
(lp1949
VBESC408
p1950
aVBESC407
p1951
aVBESC376
p1952
aVBESC494
p1953
aVBESC370
p1954
aVCMLIT197
p1955
aVBESC459
p1956
aVBESC494H
p1957
aVBESC395
p1958
aVBESC464
p1959
asVMechanical Engineering Technology (MET)
p1960
(lp1961
VMET440
p1962
aVMET438
p1963
aVMET461
p1964
aVMET455
p1965
aVMET281
p1966
aVMET297
p1967
aVMET425
p1968
aVMET308
p1969
aVMET197
p1970
aVMET332
p1971
aVMET320
p1972
aVMET331
p1973
aVMET206
p1974
aVMET338
p1975
aVMET497
p1976
aVAE297C
p1977
aVMET397
p1978
aVMET107
p1979
aVMET418
p1980
aVMET105
p1981
aVMET370
p1982
aVWWNDS103
p1983
asVPlant (PLANT)
p1984
(lp1985
VPLANT428
p1986
aVHPA296
p1987
aVPLANT461
p1988
aVPLANT427
p1989
aVPLANT426
p1990
aVPLANT220
p1991
aVPLANT494
p1992
aVPLANT217
p1993
aVPLANT494H
p1994
asVArt Education (AED)
p1995
(lp1996
VAED401
p1997
aVAED299
p1998
aVAED296
p1999
aVHPA410
p2000
aVAED211
p2001
aVAED225
p2002
aVAED212
p2003
aVAED495D
p2004
aVAED303
p2005
aVAED199
p2006
aVAED494H
p2007
aVAED495
p2008
aVAED490
p2009
aVAED495C
p2010
aVAED495B
p2011
aVAED495A
p2012
aVAED495E
p2013
aVAED497
p2014
aVAED488
p2015
aVAED489
p2016
aVAED099
p2017
aVSCM494
p2018
asVCommonwealth College (CWC)
p2019
(lp2020
VAE468
p2021
aVCWC494H
p2022
aVCWC298
p2023
aVCWC297
p2024
aVCWC494
p2025
aVMATSE427
p2026
asVNursing (NURS)
p2027
(lp2028
VNURS458
p2029
aVNURS415
p2030
aVNURS466
p2031
aVNURS441
p2032
aVNURS442
p2033
aVSOC435
p2034
aVNURS303
p2035
aVNURS301
p2036
aVNURS401
p2037
aVNURS404
p2038
aVNURS407
p2039
aVNURS116
p2040
aVNURS115
p2041
aVNURS114
p2042
aVNURS498
p2043
aVNURS200W
p2044
aVNURS216
p2045
aVNURS203
p2046
aVNURS450B
p2047
aVNURS213
p2048
aVNURS230H
p2049
asVIndustrial Engineering (IE)
p2050
(lp2051
VIE470
p2052
aVIE466
p2053
aVIE454
p2054
aVIE468
p2055
aVIE478
p2056
aVIE453
p2057
aVIE418
p2058
aVIE419
p2059
aVIE408
p2060
aVIE402
p2061
aVIE424
p2062
aVIE434
p2063
aVME496
p2064
aVIE100
p2065
aVIE494
p2066
aVIE312
p2067
aVIE496
p2068
aVIE497
p2069
aVIE469
p2070
aVIE307
p2071
aVIE311
p2072
asVLanguage and Literacy Education (LLED)
p2073
(lp2074
VLLED498
p2075
aVLLED495
p2076
aVLLED497
p2077
aVLLED496
p2078
aVLLED402
p2079
aVLLED400
p2080
aVLLED005
p2081
aVLLED411
p2082
aVLLED412
p2083
aVLLED296
p2084
aVLLED464
p2085
aVLLED450
p2086
aVLLED496H
p2087
aVLLED497H
p2088
aVLLED420
p2089
aVLLED010
p2090
aVLLED445
p2091
aVLLED497A
p2092
aVLLED401
p2093
aVLLED480
p2094
asVEducational Theory and Policy (EDTHP)
p2095
(lp2096
VEDTHP447
p2097
aVEDTHP420
p2098
aVEDTHP427
p2099
aVEDTHP440
p2100
aVEDTHP401
p2101
aVEDTHP435
p2102
aVEDTHP416
p2103
aVEDTHP430
p2104
aVEDTHP412
p2105
aVEDTHP234
p2106
aVEDTHP297
p2107
aVEDTHP395
p2108
aVEDTHP394
p2109
aVEDTHP115
p2110
aVEDTHP115H
p2111
aVEDTHP492
p2112
aVEDTHP497
p2113
aVEDTHP441
p2114
aVEDTHP434
p2115
aVEDTHP200
p2116
asVRadiological Sciences (RADSC)
p2117
(lp2118
VRADSC220
p2119
aVRADSC102
p2120
aVRADSC103
p2121
aVRADSC240
p2122
aVRADSC210
p2123
aVRADSC207
p2124
aVRADSC206
p2125
aVRADSC230
p2126
aVRADSC204
p2127
aVRADSC110
p2128
aVRADSC205
p2129
aVACCTG498
p2130
aVRADSC295
p2131
aVRADSC295I
p2132
aVRADSC295F
p2133
aVRADSC295G
p2134
aVRADSC295D
p2135
aVRADSC295E
p2136
aVRADSC295B
p2137
aVRADSC295C
p2138
aVRADSC295A
p2139
asVGeosciences (GEOSC)
p2140
(lp2141
VGEOSC040H
p2142
aVGEOSC416
p2143
aVGEOSC439
p2144
aVGEOSC410
p2145
aVGEOSC452
p2146
aVGEOSC110
p2147
aVGEOSC470
p2148
aVGEOSC444
p2149
aVGEOSC201
p2150
aVGEOSC202
p2151
aVGEOSC472A
p2152
aVGEOSC487
p2153
aVGEOSC071
p2154
aVGEOSC482
p2155
aVGEOSC494W
p2156
aVGEOSC002
p2157
aVGEOSC488
p2158
aVARCH442
p2159
aVGEOSC109H
p2160
aVGEOSC405
p2161
aVGEOSC020L
p2162
asVArt (ART)
p2163
(lp2164
VART020
p2165
aVART230
p2166
aVART341
p2167
aVART411
p2168
aVART211Y
p2169
aVART017
p2170
aVART011
p2171
aVART122
p2172
aVCHE330H
p2173
aVART440
p2174
aVART447
p2175
aVART240
p2176
aVART201
p2177
aVART200
p2178
aVART198
p2179
aVSOC454
p2180
aVART415
p2181
aVART430
p2182
aVART422
p2183
aVART080
p2184
aVART297
p2185
aVART450H
p2186
asVTemporary Education Abroad Registration (EDAB)
p2187
(lp2188
VMIS470
p2189
aVEDAB199
p2190
aVEDABTEMPI
p2191
aVEDABTEMPH
p2192
aVAERSP401A
p2193
asVAgricultural Systems Management (ASM)
p2194
(lp2195
VASM496
p2196
aVASM424H
p2197
aVASM327
p2198
aVASM310
p2199
aVASM327H
p2200
aVASM420
p2201
aVASM309
p2202
aVASM320
p2203
aVASM309H
p2204
aVASM424
p2205
aVMIS434
p2206
aVHEBR002
p2207
asVCommunity Environment and Development (CED)
p2208
(lp2209
VCED404
p2210
aVCED400
p2211
aVCED429
p2212
aVCED417
p2213
aVCED230
p2214
aVCED425
p2215
aVCED430
p2216
aVCED420
p2217
aVCED155
p2218
aVCED309
p2219
aVCED152
p2220
aVCED495A
p2221
aVCED297
p2222
aVCED450
p2223
aVCED497A
p2224
aVCED452
p2225
aVCED497
p2226
aVCED160
p2227
aVCED494H
p2228
aVCED496
p2229
asVSpecial Education (SPLED)
p2230
(lp2231
VSPLED462
p2232
aVSPLED463
p2233
aVSPLED420
p2234
aVSPLED464
p2235
aVSPLED431
p2236
aVSPLED454
p2237
aVSPLED403H
p2238
aVSPLED412
p2239
aVSPLED411
p2240
aVSPLED404
p2241
aVSPLED460B
p2242
aVSPLED415
p2243
aVSPLED408
p2244
aVSPLED419
p2245
aVSPLED418
p2246
aVSPLED460A
p2247
aVSPLED401
p2248
aVSPLED444
p2249
aVSPLED409B
p2250
aVSPLED409C
p2251
asVAccounting (ACCTG)
p2252
(lp2253
VACCTG422
p2254
aVACCTG472
p2255
aVACCTG431
p2256
aVACCTG432
p2257
aVACCTG471
p2258
aVACCTG405
p2259
aVACCTG403W
p2260
aVACCTG411
p2261
aVACCTG410
p2262
aVACCTG403
p2263
aVACCTG305
p2264
aVACCTG340
p2265
aVACCTG211
p2266
aVACCTG497
p2267
aVACCTG399
p2268
aVACCTG495
p2269
aVACCTG494
p2270
aVACCTG481
p2271
aVANTH432
p2272
aVACCTG404
p2273
aVIST450A
p2274
aVACCTG397A
p2275
asVSocial Data Analytics (SODA)
p2276
(lp2277
VSODA497
p2278
aVSODA496
p2279
aVHEBR494
p2280
aVSODA308
p2281
asVAgroecology (AGECO)
p2282
(lp2283
VAGECO121H
p2284
aVAGECO197
p2285
aVAGECO429
p2286
aVAGECO201
p2287
aVAGECO418
p2288
aVLER437
p2289
aVAGECO295
p2290
aVAGECO122
p2291
aVAGECO134
p2292
aVARTH495
p2293
aVAGECO121
p2294
aVAGECO003
p2295
aVAGECO496
p2296
aVAGECO497
p2297
aVAGECO495
p2298
aVAGECO144
p2299
aVAGECO490
p2300
aVAGECO154
p2301
aVAGECO457
p2302
aVAGECO438
p2303
asVCivil Engineering Technology (CET)
p2304
(lp2305
VCET343
p2306
aVCET342
p2307
aVCET432
p2308
aVCET431
p2309
aVCET430
p2310
aVCET435
p2311
aVCET434
p2312
aVCET308
p2313
aVCET361
p2314
asVCivil Engineering (CE)
p2315
(lp2316
VCE100S
p2317
aVCE494H
p2318
aVBBH495A
p2319
aVCE424
p2320
aVCE472
p2321
aVCE254
p2322
aVCE449
p2323
aVCE465
p2324
aVJAPNS496
p2325
aVCE342
p2326
aVCE462
p2327
aVCE496
p2328
aVCE456
p2329
aVCE360
p2330
aVCE423
p2331
aVCE438
p2332
aVCE411
p2333
aVCE441
p2334
aVCE435
p2335
aVCE437
p2336
aVCE445
p2337
aVCE447
p2338
asVMusic-\u200bVoice (VOICE)
p2339
(lp2340
VVOICE412
p2341
aVVOICE462
p2342
aVVOICE470
p2343
aVVOICE420
p2344
aVVOICE180
p2345
aVVOICE270
p2346
aVVOICE230
p2347
aVVOICE170
p2348
aVVOICE370
p2349
aVVOICE130
p2350
aVVOICE330
p2351
aVVOICE120
p2352
aVVOICE320
p2353
aVVOICE220
p2354
aVVOICE110
p2355
aVVOICE100
p2356
aVVOICE480
p2357
aVVOICE380
p2358
aVVOICE430
p2359
aVWP337
p2360
aVVOICE280
p2361
asVApplied Linguistics (APLNG)
p2362
(lp2363
VAPLNG250
p2364
aVAPLNG210
p2365
aVAPLNG310
p2366
aVAPLNG083
p2367
aVAPLNG200
p2368
aVAPLNG220N
p2369
aVAPLNG482
p2370
aVAPLNG412
p2371
aVAPLNG402
p2372
aVAPLNG410
p2373
aVAPLNG297
p2374
aVAPLNG484
p2375
aVAPLNG280N
p2376
aVAPLNG493
p2377
aVAPLNG491
p2378
aVAPLNG497
p2379
aVAPLNG496
p2380
asVMaterials Engineering Technology (MAET)
p2381
(lp2382
VCAMS496
p2383
aVMAET204
p2384
aVMAET205
p2385
aVMAET202
p2386
aVMAET203
p2387
aVMAET297
p2388
aVMAET201
p2389
asVComplementary Alternative Medicine (CAM)
p2390
(lp2391
VCAM294
p2392
aVCAS100S
p2393
aVDS402
p2394
asVTheatre (THEA)
p2395
(lp2396
VTHEA107
p2397
aVTHEA289
p2398
aVTHEA121
p2399
aVTHEA225A
p2400
aVTHEA401H
p2401
aVTHEA221
p2402
aVTHEA201W
p2403
aVTHEA170
p2404
aVTHEA428
p2405
aVTHEA152
p2406
aVTHEA490
p2407
aVTHEA198
p2408
aVTHEA481
p2409
aVTHEA497
p2410
aVTHEA180
p2411
aVTHEA496H
p2412
aVTHEA465
p2413
aVTHEA200
p2414
aVTHEA202
p2415
aVTHEA425A
p2416
asVLandscape Architecture (LARCH)
p2417
(lp2418
VLARCH400
p2419
aVLARCH497C
p2420
aVLARCH297
p2421
aVLARCH215
p2422
aVLARCH060
p2423
aVLARCH497
p2424
aVLARCH496
p2425
aVLARCH495
p2426
aVLARCH255
p2427
aVLARCH245
p2428
aVLARCH276
p2429
aVLARCH199
p2430
aVLARCH365
p2431
aVLARCH335
p2432
aVLARCH221
p2433
aVLARCH222
p2434
aVLARCH236
p2435
aVLARCH235
p2436
aVEMCH315
p2437
aVLARCH496H
p2438
aVLARCH115
p2439
asVLabor and Employment Relations (LER)
p2440
(lp2441
VLER083
p2442
aVLER312
p2443
aVPHYS097
p2444
aVLER201
p2445
aVLER136
p2446
aVLER497
p2447
aVLER494
p2448
aVPHOTO401
p2449
aVLER489
p2450
aVLER488
p2451
aVLER437
p2452
aVLER427
p2453
aVLER424
p2454
aVLER409
p2455
aVLER100
p2456
aVLER475
p2457
aVLER468
p2458
aVLER497F
p2459
aVLER466
p2460
aVLER459
p2461
aVLER445Y
p2462
aVLER460
p2463
asVEarth Sciences (EARTH)
p2464
(lp2465
VEARTH105
p2466
aVEARTH104
p2467
aVEARTH107
p2468
aVEARTH106
p2469
aVEARTH101
p2470
aVEARTH100
p2471
aVEARTH103
p2472
aVEARTH240
p2473
aVEARTH002
p2474
aVEARTH111
p2475
aVEARTH497
p2476
aVEARTH496
p2477
aVEARTH150
p2478
aVEARTH498
p2479
aVEARTH495
p2480
aVEARTH100H
p2481
aVEARTH400
p2482
aVEARTH402
p2483
aVHIED303
p2484
aVPORT051
p2485
aVEARTH297
p2486
aVEARTH296
p2487
asVBiobehavioral Health (BBH)
p2488
(lp2489
VBBH495
p2490
aVBBH496
p2491
aVBBH490
p2492
aVFR002
p2493
aVBBH310
p2494
aVBBH311
p2495
aVBBH316
p2496
aVBBH315
p2497
aVBBH130
p2498
aVBBH368
p2499
aVBBH468
p2500
aVBBH432
p2501
aVBBH458
p2502
aVBBH410
p2503
aVBBH311H
p2504
aVBBH399
p2505
aVBBH148
p2506
aVBBH297
p2507
aVBBH316H
p2508
aVBBH417
p2509
aVBBH451H
p2510
asVDietetic Food Systems Management (DSM)
p2511
(lp2512
VDSM295W
p2513
aVCMAS258
p2514
aVDSM295A
p2515
asVArabic (ARAB)
p2516
(lp2517
VARAB164
p2518
aVARAB165
p2519
aVARAB399
p2520
aVARAB494H
p2521
aVARAB299
p2522
aVARAB003
p2523
aVARAB297
p2524
aVARAB001
p2525
aVARAB397
p2526
aVARAB402
p2527
aVARAB401
p2528
aVARAB494
p2529
aVARAB496
p2530
aVARAB497
p2531
aVARAB199
p2532
aVARAB197
p2533
aVARAB296
p2534
aVARAB110
p2535
aVARAB497B
p2536
aVARAB002
p2537
asVNaval Science (NAVSC)
p2538
(lp2539
VNAVSC411
p2540
aVNAVSC401
p2541
aVNAVSC103
p2542
aVNAVSC101
p2543
aVRHS496
p2544
aVNAVSC201
p2545
aVNAVSC202
p2546
aVNAVSC313
p2547
aVNAVSC301
p2548
aVNAVSC311
p2549
aVNAVSC302
p2550
aVNAVSC402
p2551
asVWorkforce Education and Development (WFED)
p2552
(lp2553
VWFED410
p2554
aVWFED411
p2555
aVWFED395D
p2556
aVWFED395C
p2557
aVWFED395B
p2558
aVWFED395A
p2559
aVWFED471
p2560
aVWFED296
p2561
aVWFED207
p2562
aVWFED495C
p2563
aVWFED445
p2564
aVWFED450
p2565
aVWFED441
p2566
aVWFED001
p2567
aVWFED106
p2568
aVWFED414
p2569
aVWFED105
p2570
aVWFED495
p2571
aVWFED100
p2572
aVWFED497
p2573
asVBiomedical Engineering Technology (BE_T)
p2574
(lp2575
VBE_T296
p2576
aVBE_T297
p2577
aVBE_T101
p2578
aVBE_T197
p2579
aVBE_T206
p2580
aVBE_T205
p2581
aVBE_T204
p2582
aVBE_T210
p2583
aVBE_T201
p2584
aVBE_T203
p2585
aVAGSC296
p2586
asVPsychology -\u200b CA (PSYC)
p2587
(lp2588
VPSYC301
p2589
aVCOMM495
p2590
asVRailroad Transportation Engineering (RTE)
p2591
(lp2592
VRTE403
p2593
aVRTE402
p2594
aVRTE406
p2595
aVRTE404
p2596
aVRTE305
p2597
aVRTE294
p2598
aVRTE301
p2599
aVRTE302
p2600
aVRTE303
p2601
aVRTE495
p2602
aVRTE496
p2603
aVRTE497
p2604
asVHindi (HINDI)
p2605
(lp2606
VCYBER100
p2607
aVACCTG404
p2608
aVHINDI001
p2609
aVHINDI002
p2610
aVHINDI003
p2611
aVHINDI110
p2612
asVElectrical Engineering Technology (EET)
p2613
(lp2614
VEET100
p2615
aVEET296
p2616
aVEET118
p2617
aVEMET394
p2618
aVEET409
p2619
aVEET315
p2620
aVEET433
p2621
aVARAB497
p2622
aVEET408
p2623
aVEET221
p2624
aVEET312
p2625
aVEET413
p2626
aVEET458
p2627
aVEET475
p2628
aVEET210
p2629
aVEET275
p2630
aVEET331
p2631
aVEET215
p2632
aVEET205
p2633
aVEET215H
p2634
aVEET414
p2635
aVEET311
p2636
asVEngineering Technology (ET)
p2637
(lp2638
VET321
p2639
aVET323
p2640
aVET322
p2641
aVPT270
p2642
aVET002
p2643
aVET496
p2644
aVET495
p2645
aVET300
p2646
aVET200
p2647
asVScience Education (SCIED)
p2648
(lp2649
VSCIED140
p2650
aVSCIED411
p2651
aVSCIED410
p2652
aVSCIED297
p2653
aVSCIED412
p2654
aVSCIED298
p2655
aVSCIED458
p2656
aVSCIED498
p2657
aVSCIED110
p2658
aVSCIED497
p2659
aVSCIED496
p2660
aVSCIED297A
p2661
aVSCIED458H
p2662
aVSCIED460
p2663
aVSCIED114
p2664
aVSCIED496A
p2665
aVSCIED112
p2666
aVSCIED455
p2667
aVSCIED116
p2668
aVSCIED496H
p2669
asVLiberal Arts (LA)
p2670
(lp2671
VLA200
p2672
aVLA201
p2673
aVLA202
p2674
aVMATH455
p2675
aVLA498
p2676
aVLA495
p2677
aVLA494
p2678
aVLA101
p2679
aVLA496
p2680
aVLA402
p2681
aVLA199
p2682
aVCHEM494H
p2683
aVLA296
p2684
aVLA424
p2685
aVLA083
p2686
aVLA197
p2687
aVLA494H
p2688
aVLA299
p2689
aVLA395
p2690
aVLA297
p2691
aVLA198
p2692
aVLA295
p2693
asVStatistics (STAT)
p2694
(lp2695
VSTAT184
p2696
aVSTAT496H
p2697
aVSTAT200
p2698
aVSTAT319
p2699
aVSTAT318
p2700
aVSTAT461
p2701
aVSTAT497D
p2702
aVSTAT301
p2703
aVSTAT418H
p2704
aVSTAT414
p2705
aVSTAT440
p2706
aVSTAT480
p2707
aVSTAT483
p2708
aVSTAT482
p2709
aVSTAT495
p2710
aVSTAT418
p2711
aVSTAT462
p2712
aVSTAT296
p2713
aVSTAT460
p2714
aVSTAT466
p2715
asVItalian (IT)
p2716
(lp2717
VIT130
p2718
aVIT001
p2719
aVIT003
p2720
aVIT475
p2721
aVIT010
p2722
aVIT325
p2723
aVIT320
p2724
aVIT053
p2725
aVIT050
p2726
aVIT399
p2727
aVIT395
p2728
aVIT110
p2729
aVIT422
p2730
aVIT296
p2731
aVIT490
p2732
aVIT496
p2733
aVIT485
p2734
aVIT330W
p2735
aVIT099
p2736
aVIT230
p2737
asVLinguistics (LING)
p2738
(lp2739
VPHIL490
p2740
aVLING449
p2741
aVLING404
p2742
aVLING429
p2743
aVLING447
p2744
aVLING097
p2745
aVLING294
p2746
aVLING448
p2747
aVLING395
p2748
aVLING399
p2749
aVLING457
p2750
aVLING299
p2751
aVLING001
p2752
aVLING102
p2753
aVLING100
p2754
aVLING494H
p2755
aVLING496
p2756
aVLING497
p2757
aVLING199
p2758
aVLING198
p2759
aVLING493
p2760
asVAgricultural Science (AGSC)
p2761
(lp2762
VAGSC296
p2763
aVSPAN413
p2764
aVAGSC494H
p2765
aVAGSC496
p2766
aVAGSC494
p2767
aVAGSC495
p2768
asVHealth and Human Development (HHD)
p2769
(lp2770
VHHD495
p2771
aVHHD197
p2772
aVHHD397A
p2773
aVHHD297
p2774
aVHHD296
p2775
aVHHD295
p2776
aVHHD294
p2777
aVHHD402
p2778
aVHHD397
p2779
aVHHD297C
p2780
aVHHD401
p2781
aVHHD100H
p2782
aVHHD494
p2783
aVHHD497
p2784
aVHHD496
p2785
aVRPTM498
p2786
aVJAPNS430
p2787
asVJapanese (JAPNS)
p2788
(lp2789
VJAPNS404
p2790
aVJAPNS296B
p2791
aVJAPNS003
p2792
aVJAPNS299
p2793
aVJAPNS410
p2794
aVJAPNS453
p2795
aVJAPNS454
p2796
aVJAPNS199
p2797
aVJAPNS197
p2798
aVJAPNS121H
p2799
aVJAPNS497
p2800
aVJAPNS496
p2801
aVJAPNS494
p2802
aVJAPNS431
p2803
aVJAPNS494H
p2804
aVJAPNS210
p2805
aVJAPNS120W
p2806
aVJAPNS426
p2807
aVJAPNS172
p2808
aVJAPNS432
p2809
asVPSU First-\u200bYear Seminar (PSU)
p2810
(lp2811
VPSU003
p2812
aVPSU001
p2813
aVPSU006
p2814
aVPSU007
p2815
aVPSU017
p2816
aVPSU016
p2817
aVPSU008
p2818
aVPSU009
p2819
aVAPLNG250
p2820
aVPSU005
p2821
aVPSU012
p2822
aVPSU009T
p2823
aVPSU006T
p2824
aVPSU008T
p2825
aVEDPSY406
p2826
aVPSU015
p2827
aVPSU014
p2828
asVFirst-\u200bYear Seminar (CAP)
p2829
(lp2830
VCAP160
p2831
aVCAP100
p2832
aVCAP110
p2833
aVCAP140
p2834
aVCAP150
p2835
aVCAP120
p2836
asVMusic-\u200bBrass (BRASS)
p2837
(lp2838
VBRASS431
p2839
aVBRASS172
p2840
aVBRASS282
p2841
aVBRASS111
p2842
aVBRASS380
p2843
aVBRASS483
p2844
aVBRASS484
p2845
aVBRASS224
p2846
aVBRASS231
p2847
aVBRASS220
p2848
aVBRASS222
p2849
aVBRASS181
p2850
aVBRASS182
p2851
aVBRASS321
p2852
aVBRASS334
p2853
aVBRASS134
p2854
aVBRASS121
p2855
aVBRASS470
p2856
aVBRASS130
p2857
aVBRASS132
p2858
asVEnergy Business and Finance (EBF)
p2859
(lp2860
VEBF472
p2861
aVEBF473
p2862
aVEBF484
p2863
aVEBF497
p2864
aVEMCH409
p2865
aVEBF401
p2866
aVEBF410
p2867
aVEBF411
p2868
aVEBF483
p2869
aVEBF304
p2870
aVEBF301
p2871
aVEBF402
p2872
aVEBF200
p2873
asVAsian Studies (ASIA)
p2874
(lp2875
VASIA199
p2876
aVASIA181
p2877
aVASIA183
p2878
aVAPLNG220N
p2879
aVASIA174
p2880
aVASIA004
p2881
aVASIA102
p2882
aVASIA105
p2883
aVASIA395
p2884
aVASIA405Y
p2885
aVASIA417
p2886
aVASIA315
p2887
aVASIA432
p2888
aVASIA419
p2889
aVASIA101N
p2890
aVASIA434
p2891
aVASIA404H
p2892
aVASIA402
p2893
aVASIA400
p2894
aVASIA177
p2895
aVASIA176
p2896
asVMining Technology (MNGT)
p2897
(lp2898
VMNGT204
p2899
aVMNGT210
p2900
aVMNGT213
p2901
aVMNGT207
p2902
aVMNGT211
p2903
aVMNGT216
p2904
aVMNGT214
p2905
aVMNGT203
p2906
aVMNGT215
p2907
aVMNGT205W
p2908
aVMNGT202
p2909
aVMNGT209
p2910
aVMNGT208
p2911
aVOT411
p2912
aVMNGT110
p2913
aVMNGT100
p2914
aVAGECO490
p2915
aVMNGT030
p2916
asVHistory (HIST)
p2917
(lp2918
VHIST301
p2919
aVHIST266
p2920
aVMAET202
p2921
aVARTH335
p2922
aVHIST434
p2923
aVHIST112
p2924
aVHIST475Y
p2925
aVHIST449
p2926
aVHIST444W
p2927
aVHIST467
p2928
aVHIST439
p2929
aVHIST429
p2930
aVHIST174
p2931
aVHIST155
p2932
aVHIST154
p2933
aVHIST403
p2934
aVHIST169
p2935
aVHIST153H
p2936
aVHIST485
p2937
aVHIST490
p2938
aVHIST468H
p2939
aVHIST488
p2940
asVHumanities -\u200b CA (HUM)
p2941
(lp2942
VHUM491
p2943
aVHUM497
p2944
aVHUM496
p2945
aVHUM495
p2946
aVHUM494
p2947
aVHUM200
p2948
aVHUM460
p2949
aVHUM300W
p2950
aVHUM461
p2951
aVCHEM408
p2952
aVHUM100
p2953
aVSTRNG121
p2954
aVHUM430
p2955
aVHUM453
p2956
aVHUM311
p2957
aVHUM410
p2958
aVHUM400
p2959
aVHUM150
p2960
asVMechanical Technology (MCHT)
p2961
(lp2962
VJST135
p2963
aVMCHT111
p2964
aVMCHT213
p2965
aVMICRB203
p2966
aVMCHT112
p2967
aVMCHT214
p2968
asVElementary Education in Multicultural Settings (ELEDM)
p2969
(lp2970
VELEDM403
p2971
aVELEDM402
p2972
aVBRASS421
p2973
aVELEDM400
p2974
aVHDFS495C
p2975
aVELEDM395
p2976
aVELEDM401C
p2977
aVELEDM401B
p2978
aVELEDM401A
p2979
aVELEDM496
p2980
asVForestry (FOR)
p2981
(lp2982
VFOR494H
p2983
aVMAET202
p2984
aVFOR471
p2985
aVFOR303
p2986
aVFOR296
p2987
aVFOR297
p2988
aVFOR488
p2989
aVFOR201
p2990
aVFOR200
p2991
aVFOR466
p2992
aVFOR497
p2993
aVFOR494
p2994
aVFOR421
p2995
aVFOR480
p2996
aVFOR266
p2997
aVFOR350
p2998
aVFOR403
p2999
aVFOR255
p3000
aVFOR439
p3001
aVFOR418
p3002
aVFOR400
p3003
asVForensic Science (FRNSC)
p3004
(lp3005
VFRNSC415
p3006
aVFRNSC400
p3007
aVFRNSC411
p3008
aVFRNSC410
p3009
aVFRNSC295
p3010
aVFRNSC294
p3011
aVFRNSC296
p3012
aVFRNSC413
p3013
aVFRNSC475
p3014
aVFRNSC497
p3015
aVFRNSC485
p3016
aVFRNSC494
p3017
aVFRNSC200
p3018
aVFRNSC210
p3019
aVFRNSC496
p3020
aVFRNSC100
p3021
aVFRNSC421
p3022
aVFRNSC427
p3023
asVEducation Mathematics -\u200b CA (EDMTH)
p3024
(lp3025
VEDMTH441
p3026
aVEDMTH302
p3027
aVEDMTH301
p3028
aVEDMTH443
p3029
aVEDMTH444
p3030
aVEDMTH442
p3031
aVEDMTH455
p3032
asVWood Products (WP)
p3033
(lp3034
VWP416
p3035
aVWP412
p3036
aVWP296
p3037
aVWP418
p3038
aVWP200
p3039
aVWP203
p3040
aVWP337
p3041
aVWP495
p3042
aVWP496
p3043
asVManagement (MGMT)
p3044
(lp3045
VMGMT475
p3046
aVMGMT399
p3047
aVMGMT461
p3048
aVMGMT420
p3049
aVMGMT431
p3050
aVMGMT430
p3051
aVMGMT453
p3052
aVMGMT496B
p3053
aVMGMT443
p3054
aVMGMT426
p3055
aVMGMT150
p3056
aVMGMT483
p3057
aVMGMT496
p3058
aVMGMT415
p3059
aVMGMT301H
p3060
aVMGMT301M
p3061
aVMGMT410
p3062
aVMGMT297
p3063
aVMGMT296H
p3064
aVMGMT409
p3065
aVPLSC450H
p3066
asVEducational Psychology (EDPSY)
p3067
(lp3068
VEDPSY296
p3069
aVEDPSY297
p3070
aVEDPSY297A
p3071
aVEDPSY475
p3072
aVEDPSY421
p3073
aVEDPSY421H
p3074
aVEDPSY408
p3075
aVEDPSY406
p3076
aVEDPSY014H
p3077
aVEDPSY400
p3078
aVEDPSY450
p3079
aVEDPSY101
p3080
aVEDPSY496H
p3081
aVEDPSY496
p3082
aVEDPSY497
p3083
aVEDPSY493
p3084
aVEDPSY010
p3085
aVEDPSY011
p3086
aVEDPSY014
p3087
aVSTAT466
p3088
asVInternational Studies (INTST)
p3089
(lp3090
VINTST495
p3091
aVINTST494
p3092
aVHONOR201
p3093
aVINTST493
p3094
aVINTST100
p3095
aVCAMS010U
p3096
aVINTST400
p3097
aVINTST494H
p3098
asVCivic and Community Engagement (CIVCM)
p3099
(lp3100
VCIVCM211N
p3101
asVPlastics Engineering Technology -\u200b BC (PLET)
p3102
(lp3103
VPLET425
p3104
aVPLET206
p3105
aVPLET430
p3106
aVPLET323
p3107
aVPLET477
p3108
aVPLET397
p3109
aVPLET235
p3110
aVPLET345
p3111
aVPLET222
p3112
aVPLET482
p3113
aVPLET483
p3114
aVPLET494A
p3115
aVPLET380
p3116
aVPLET206M
p3117
aVPLET494
p3118
aVPLET330
p3119
aVPLET304
p3120
aVPLET050
p3121
aVPLET366
p3122
aVPLET497
p3123
asVAerospace Engineering (AERSP)
p3124
(lp3125
VAERSP494
p3126
aVAERSP301
p3127
aVAERSP305
p3128
aVAERSP492
p3129
aVMETEO494M
p3130
aVAERSP399
p3131
aVAERSP494H
p3132
aVAERSP301H
p3133
aVANSC457
p3134
aVAERSP496H
p3135
aVAERSP425
p3136
aVAERSP402B
p3137
aVAERSP306
p3138
aVAERSP423
p3139
aVAERSP460
p3140
aVAERSP405
p3141
aVAERSP410H
p3142
aVAERSP440
p3143
aVAERSP473
p3144
aVAERSP450H
p3145
aVAERSP401B
p3146
aVAERSP401A
p3147
asVArchitectural Engineering (AE)
p3148
(lp3149
VAE222H
p3150
aVAE372
p3151
aVAE496F
p3152
aVAE202H
p3153
aVAE496H
p3154
aVAE221
p3155
aVAE496
p3156
aVAE311
p3157
aVAE221H
p3158
aVAE453
p3159
aVAE454
p3160
aVAE457
p3161
aVAE482
p3162
aVKINES466
p3163
aVIST099
p3164
aVAE297C
p3165
aVAE494M
p3166
aVAE422
p3167
aVAE472
p3168
aVAE421
p3169
aVAE476
p3170
aVAE466
p3171
asVAmerican Studies (AMST)
p3172
(lp3173
VAMST494H
p3174
aVENVE425
p3175
aVAMST140
p3176
aVAMST435
p3177
aVAMST412
p3178
aVAMST432
p3179
aVAMST295
p3180
aVAMST104
p3181
aVAMST491
p3182
aVAMST417
p3183
aVAMST496
p3184
aVAMST491W
p3185
aVAMST423
p3186
aVAMST482
p3187
aVAMST481
p3188
aVAMST083
p3189
aVAMST448
p3190
aVAMST402
p3191
aVAMST400
p3192
aVAMST135
p3193
aVAMST307
p3194
asVCollege Student Affairs (CSA)
p3195
(lp3196
VCSA397
p3197
asVSociology (SOC)
p3198
(lp3199
VSOC294
p3200
aVSOC497B
p3201
aVSOC494H
p3202
aVSOC435
p3203
aVSOC446
p3204
aVSOC430
p3205
aVSOC012
p3206
aVSOC456
p3207
aVSOC471
p3208
aVSOC447
p3209
aVSOC110
p3210
aVSOC451
p3211
aVSOC030
p3212
aVSOC007
p3213
aVSOC001
p3214
aVSOC013
p3215
aVSOC414
p3216
aVSOC406
p3217
aVPHYS001H
p3218
aVSOC425H
p3219
aVSOC309
p3220
asVEnvironmental Systems Engineering (ENVSE)
p3221
(lp3222
VENVSE458
p3223
aVENVSE406
p3224
aVENVSE404
p3225
aVENVSE412
p3226
aVENVSE400
p3227
aVENVSE450
p3228
aVENVSE440
p3229
aVENVSE470
p3230
aVENVSE408
p3231
aVENVSE457
p3232
aVENVSE494
p3233
aVENVSE495
p3234
aVENVSE496
p3235
aVENVSE497
p3236
aVENVSE480
p3237
aVERM494
p3238
aVENVSE427
p3239
aVENVSE420
p3240
asVAstronomy and Astrophysics (ASTRO)
p3241
(lp3242
VASTRO292
p3243
aVASTRO140
p3244
aVASTRO291
p3245
aVASTRO296
p3246
aVASTRO005
p3247
aVASTRO011
p3248
aVASTRO120
p3249
aVASTRO130
p3250
aVASTRO494H
p3251
aVASTRO021
p3252
aVASTRO320
p3253
aVASTRO475
p3254
aVASTRO420
p3255
aVASTRO097
p3256
aVASTRO440
p3257
aVASTRO410
p3258
aVASTRO414
p3259
aVASTRO199
p3260
aVASTRO001H
p3261
aVASTRO480
p3262
asVBiology (BIOL)
p3263
(lp3264
VBIOL240M
p3265
aVBIOL495
p3266
aVBIOL497G
p3267
aVBIOL460
p3268
aVBIOL296H
p3269
aVBIOL450M
p3270
aVAERSP397
p3271
aVBIOL479
p3272
aVBIOL110
p3273
aVBIOL464H
p3274
aVBIOL430H
p3275
aVBIOL296B
p3276
aVBIOL297E
p3277
aVBIOL498A
p3278
aVBIOL435
p3279
aVBIOL428
p3280
aVBIOL405
p3281
aVBIOL411
p3282
aVBIOL416
p3283
aVBIOL417
p3284
aVBIOL415
p3285
asVLatina/\u200bo Studies (LTNST)
p3286
(lp3287
VLTNST479
p3288
aVLTNST300
p3289
aVLTNST467
p3290
aVLTNST403
p3291
aVLTNST127
p3292
aVAFAM460
p3293
aVLTNST226
p3294
aVLTNST100
p3295
aVLTNST426
p3296
aVLTNST197
p3297
aVLTNST315
p3298
asVEnvironmental Studies (ENVST)
p3299
(lp3300
VENVST497
p3301
aVENVST496
p3302
aVENVST297
p3303
aVENVST296
p3304
aVENVST424
p3305
aVENVST100
p3306
aVENVST428
p3307
aVENVST424H
p3308
aVENVST400
p3309
aVENVST395
p3310
aVENVST200
p3311
asVCommunication Sciences and Disorders (CSD)
p3312
(lp3313
VCSD101
p3314
aVCSD100
p3315
aVCSD297
p3316
aVCSD296
p3317
aVCSD397
p3318
aVCSD431
p3319
aVCSD433
p3320
aVCSD300
p3321
aVCSD311
p3322
aVCSD146
p3323
aVCSD318
p3324
aVCSD459
p3325
aVCSD497A
p3326
aVCET343
p3327
aVCSD497
p3328
aVCSD496
p3329
aVCSD495A
p3330
aVCSD269
p3331
aVCSD442
p3332
aVCSD444
p3333
aVCSD341
p3334
asVMaterials Science and Engineering (MATSE)
p3335
(lp3336
VMATSE484
p3337
aVMATSE440
p3338
aVMATSE450
p3339
aVMATSE444
p3340
aVMATSE445
p3341
aVMATSE112
p3342
aVMATSE297
p3343
aVMATSE472
p3344
aVMATSE462
p3345
aVMATSE419
p3346
aVMATSE404
p3347
aVMATSE494M
p3348
aVMATSE468
p3349
aVMATSE401
p3350
aVMATSE259
p3351
aVMATSE430H
p3352
aVMATSE460
p3353
aVMATSE493
p3354
aVMATSE427
p3355
aVMATSE497
p3356
asVBiomedical Engineering (BME)
p3357
(lp3358
VBME450
p3359
aVBME440
p3360
aVBME100
p3361
aVBME433
p3362
aVBME430
p3363
aVBME201
p3364
aVBME429H
p3365
aVBME429
p3366
aVBME409
p3367
aVBME406
p3368
aVBME446
p3369
aVBME423
p3370
aVBME410
p3371
aVBME413
p3372
aVBME497
p3373
aVBME403
p3374
aVBME301
p3375
aVBME313
p3376
aVBME303
p3377
aVBME494H
p3378
asVAgribusiness Management (AGBM)
p3379
(lp3380
VAGBM102
p3381
aVAGBM220
p3382
aVAGBM106
p3383
aVAGBM445
p3384
aVAGBM101
p3385
aVAGBM470B
p3386
aVAGBM470A
p3387
aVAGBM455
p3388
aVAGBM200
p3389
aVAGBM302
p3390
aVEET408
p3391
aVAGBM320
p3392
aVAGBM495A
p3393
aVAGBM308
p3394
aVMATH498
p3395
aVAGBM495B
p3396
aVAGBM338
p3397
aVAGBM494
p3398
aVAGBM497
p3399
aVAGBM420
p3400
aVAGBM408
p3401
aVAGBM407
p3402
asVInformation Sciences and Technology (IST)
p3403
(lp3404
VIST297
p3405
aVIST296
p3406
aVIST497A
p3407
aVIST398
p3408
aVIST298
p3409
aVIST337
p3410
aVIST255
p3411
aVIST111
p3412
aVIST235
p3413
aVIST234
p3414
aVIST462
p3415
aVIST497
p3416
aVIST496
p3417
aVIST454
p3418
aVIST423
p3419
aVHM486
p3420
aVIST453
p3421
aVIST452
p3422
aVIST446
p3423
aVIST295A
p3424
aVIST445
p3425
asVComputer Engineering (CMPEN)
p3426
(lp3427
VCMPEN473
p3428
aVCMPEN461
p3429
aVCMPEN475
p3430
aVCMPEN371
p3431
aVCMPEN111
p3432
aVCMPEN352
p3433
aVCMPEN299
p3434
aVCMPEN416
p3435
aVENGL221H
p3436
aVCMPEN472H
p3437
aVCMPEN431H
p3438
aVCMPEN397
p3439
aVCMPEN395
p3440
aVCMPEN482
p3441
aVCMPEN481
p3442
aVCMPEN494H
p3443
aVCMPEN496
p3444
aVCMPEN454
p3445
aVCMPEN396A
p3446
aVCMPEN497A
p3447
aVCMPEN296
p3448
asVDigital Multimedia Design (DMD)
p3449
(lp3450
VDMD300
p3451
aVWWNDS232
p3452
aVDMD100
p3453
aVHDFS446
p3454
aVDMD400
p3455
asVElectrical Engineering (EE)
p3456
(lp3457
VEE466
p3458
aVEE395
p3459
aVEE421
p3460
aVEE009
p3461
aVEE430
p3462
aVEE406
p3463
aVEE439
p3464
aVEE403
p3465
aVEE416
p3466
aVEE432
p3467
aVEE350
p3468
aVEE495
p3469
aVEE481
p3470
aVEE212
p3471
aVEE441
p3472
aVEE211
p3473
aVEE340
p3474
aVEE460
p3475
aVEE471
p3476
aVEE320
p3477
asVWomen's Studies (WMNST)
p3478
(lp3479
VWMNST496A
p3480
aVWMNST137
p3481
aVWMNST439
p3482
aVWMNST117
p3483
aVWMNST116
p3484
aVCOMM412
p3485
aVWMNST102
p3486
aVWMNST494H
p3487
aVWMNST496
p3488
aVWMNST497
p3489
aVWMNST492
p3490
aVWMNST106Q
p3491
aVWMNST401
p3492
aVWMNST400
p3493
aVWMNST428
p3494
aVWMNST472
p3495
aVWMNST430
p3496
aVWMNST270
p3497
aVWMNST300
p3498
aVWMNST480
p3499
aVWMNST395
p3500
asVEnvironmental Science (ENVSC)
p3501
(lp3502
VENVSC400W
p3503
aVENVSC496
p3504
aVENVSC494
p3505
aVENVSC495
p3506
aVENVSC200
p3507
aVENVSC294
p3508
aVENVSC296
p3509
aVENVSC297
p3510
aVENVSC457
p3511
asVCommunications (COMM)
p3512
(lp3513
VCOMM494H
p3514
aVCOMM400
p3515
aVCOMM180
p3516
aVCOMM433
p3517
aVCOMM430
p3518
aVCOMM428E
p3519
aVCOMM428B
p3520
aVCOMM283
p3521
aVCOMM338
p3522
aVCOMM296
p3523
aVCOMM332
p3524
aVCOMM451
p3525
aVCOMM241
p3526
aVCOMM261
p3527
aVCOMM001
p3528
aVCOMM431
p3529
aVCOMM481
p3530
aVCOMM251
p3531
aVCOMM296A
p3532
aVCOMM421W
p3533
asVElectrical Engineering Technology (EE_T)
p3534
(lp3535
VHIST200
p3536
aVEE_T216H
p3537
aVWWNDS183
p3538
asVEnvironmental Resource Management (ERM)
p3539
(lp3540
VCE465
p3541
aVERM399
p3542
aVERM297
p3543
aVTHEA451
p3544
aVERM426
p3545
aVERM494H
p3546
aVERM431
p3547
aVERM430
p3548
aVERM433
p3549
aVERM300
p3550
aVERM435
p3551
aVERM436
p3552
aVERM413
p3553
aVERM412
p3554
aVERM309
p3555
aVERM402
p3556
aVERM151
p3557
aVERM497
p3558
aVERM496
p3559
aVERM495
p3560
aVERM444
p3561
aVERM411
p3562
asVArmy (ARMY)
p3563
(lp3564
VARMY402
p3565
aVARMY401
p3566
aVARMY301
p3567
aVARMY302
p3568
aVARMY204
p3569
aVARMY203
p3570
aVARMY496
p3571
aVARMY102
p3572
aVARMY101
p3573
asVGreek (GREEK)
p3574
(lp3575
VGREEK425
p3576
aVGREEK494H
p3577
aVGREEK001
p3578
aVGREEK099
p3579
aVINTAG460
p3580
aVGREEK101
p3581
aVGREEK199
p3582
aVGREEK420
p3583
aVGREEK203
p3584
aVGREEK002
p3585
aVGREEK430
p3586
aVMETEO451
p3587
aVGREEK494
p3588
aVGREEK440
p3589
aVGREEK496
p3590
aVGREEK496H
p3591
aVGREEK102
p3592
asVPhilosophy (PHIL)
p3593
(lp3594
VKINES456
p3595
aVPHIL494
p3596
aVPHIL496
p3597
aVPHIL498
p3598
aVAED101S
p3599
aVPHIL485
p3600
aVPHIL201
p3601
aVPHIL203
p3602
aVPHIL098
p3603
aVPHIL003
p3604
aVPHIL083
p3605
aVPHIL012
p3606
aVPHIL125
p3607
aVPHIL014
p3608
aVPHIL403
p3609
aVPHIL474
p3610
aVPHIL008
p3611
aVPHIL441
p3612
aVPHIL119
p3613
aVPHIL425
p3614
aVPHIL413
p3615
aVPHIL010S
p3616
asVKinesiology (KINES)
p3617
(lp3618
VKINES165
p3619
aVKINES485
p3620
aVKINES455
p3621
aVKINES088
p3622
aVKINES495B
p3623
aVKINES126
p3624
aVKINES447W
p3625
aVKINES268
p3626
aVKINES463
p3627
aVKINES421
p3628
aVKINES011
p3629
aVKINES366
p3630
aVKINES026
p3631
aVKINES077A
p3632
aVKINES048
p3633
aVKINES029A
p3634
aVKINES044
p3635
aVKINES203
p3636
aVKINES495D
p3637
aVKINES457
p3638
asVPhotography (PHOTO)
p3639
(lp3640
VPHOTO210
p3641
aVPHOTO304
p3642
aVPHOTO497
p3643
aVPHOTO496
p3644
aVPHOTO301
p3645
aVPHOTO300
p3646
aVENGL194H
p3647
aVPHOTO199
p3648
aVPHOTO400
p3649
aVPHOTO401
p3650
aVPHOTO099
p3651
aVPHOTO410
p3652
aVPHOTO404
p3653
aVPHOTO405
p3654
aVPHOTO406
p3655
aVPHOTO397B
p3656
aVPHOTO399
p3657
aVPHOTO397
p3658
aVPHOTO297
p3659
aVPHOTO101
p3660
aVPHOTO100
p3661
aVART450H
p3662
asVHospitality Management (HM)
p3663
(lp3664
VHM344
p3665
aVHM318
p3666
aVHM355
p3667
aVHM270
p3668
aVHM435
p3669
aVHM442
p3670
aVHM443
p3671
aVPLET477
p3672
aVHM304
p3673
aVHM430
p3674
aVHM498I
p3675
aVHM250
p3676
aVFOR494
p3677
aVHM199
p3678
aVHM495A
p3679
aVHM201
p3680
aVHM495D
p3681
aVHM488
p3682
aVHM497
p3683
aVHM485
p3684
aVHM482
p3685
aVHM498
p3686
asVMusic-\u200bWoodwinds (WWNDS)
p3687
(lp3688
VCE296
p3689
aVWWNDS372
p3690
aVWWNDS321
p3691
aVWWNDS330
p3692
aVWWNDS272
p3693
aVWWNDS184
p3694
aVWWNDS472
p3695
aVWWNDS432
p3696
aVWWNDS114
p3697
aVHIST404
p3698
aVWWNDS484
p3699
aVWWNDS131
p3700
aVWWNDS102
p3701
aVWWNDS380
p3702
aVWWNDS132
p3703
aVWWNDS480
p3704
aVWWNDS230
p3705
aVWWNDS482
p3706
aVWWNDS221
p3707
aVWWNDS174
p3708
aVWWNDS234
p3709
aVWWNDS110
p3710
asVHotel, Restaurant, and Institutional Management (HRIM)
p3711
(lp3712
VCRIMJ415
p3713
aVHRIM295
p3714
asVIntegrative Arts (INART)
p3715
(lp3716
VINART210
p3717
aVINART199
p3718
aVINART062
p3719
aVINART220
p3720
aVINART494H
p3721
aVINART498
p3722
aVINART197
p3723
aVINART200
p3724
aVINART050
p3725
aVINART226N
p3726
aVINART415
p3727
aVINART496H
p3728
aVINART295
p3729
aVINART116
p3730
aVINART100
p3731
aVINART115
p3732
aVINART005
p3733
aVINART015
p3734
aVINART001
p3735
aVINART258A
p3736
asVRussian (RUS)
p3737
(lp3738
VRUS141Y
p3739
aVRUS142Y
p3740
aVRUS305
p3741
aVRUS405
p3742
aVRUS406
p3743
aVRUS400
p3744
aVRUS401
p3745
aVRUS403
p3746
aVRUS083
p3747
aVRUS497
p3748
aVRUS496
p3749
aVRUS197
p3750
aVRUS204
p3751
aVCOMM230
p3752
aVRUS199
p3753
aVRUS399
p3754
aVRUS001
p3755
aVRUS053
p3756
aVRUS395
p3757
aVRUS051
p3758
aVRUS002
p3759
asVComputer Engineering Technology -\u200b CA (CMPET)
p3760
(lp3761
VCMPET401
p3762
aVCMPET005
p3763
aVCMPET403
p3764
aVCMPET402
p3765
aVCMPET117
p3766
aVCMPET412
p3767
aVCMPET120
p3768
aVCMPET355
p3769
aVCMPET211
p3770
aVCMPET333
p3771
aVENGL282
p3772
aVCMPET456
p3773
aVCMPET457
p3774
aVCMPET301
p3775
asVFrench (FR)
p3776
(lp3777
VFR199
p3778
aVFR452Y
p3779
aVFR496H
p3780
aVFR496
p3781
aVFR453Y
p3782
aVFR460
p3783
aVFR142
p3784
aVFR440
p3785
aVFR351H
p3786
aVBA304H
p3787
aVFR053
p3788
aVFR139
p3789
aVFR417H
p3790
aVFR401
p3791
aVMNG410H
p3792
aVFR399
p3793
aVFR351
p3794
aVFR352
p3795
aVFR417
p3796
aVFR430
p3797
aVFR409
p3798
aVFR296
p3799
asVCorporate Communication (CC)
p3800
(lp3801
VCC490
p3802
aVCC495
p3803
aVCC495A
p3804
aVCC200
p3805
aVCC406
p3806
aVCC405
p3807
aVCC404
p3808
aVCC402
p3809
aVCC401
p3810
asVEngineering Graphics Technology (EGT)
p3811
(lp3812
VEGT201
p3813
aVEGT205
p3814
aVEGT060
p3815
aVEGT121
p3816
aVEGT120
p3817
aVEGT119
p3818
aVEGT114
p3819
aVEGT102
p3820
aVEGT101
p3821
asVVeterinary and Biomedical Sciences (VBSC)
p3822
(lp3823
VVBSC431
p3824
aVVBSC418
p3825
aVVBSC433
p3826
aVVBSC425
p3827
aVVBSC451
p3828
aVVBSC405
p3829
aVVBSC230
p3830
aVVBSC432
p3831
aVVBSC402
p3832
aVVBSC448
p3833
aVVBSC497
p3834
aVVBSC494
p3835
aVVBSC190
p3836
aVVBSC445
p3837
aVVBSC444
p3838
aVVBSC450
p3839
aVEET496A
p3840
aVVBSC290
p3841
aVVBSC280
p3842
aVVBSC050
p3843
aVVBSC130
p3844
asVLearning Design and Technology (LDT)
p3845
(lp3846
VLDT100
p3847
aVPHIL126
p3848
aVLDT415A
p3849
aVLDT415B
p3850
aVLDT440
p3851
aVLDT441
p3852
aVLDT433
p3853
aVLDT447
p3854
aVLDT471
p3855
aVLDT467
p3856
aVLDT497A
p3857
aVLDT449
p3858
aVMGMT497
p3859
aVLDT101
p3860
aVLDT400
p3861
aVLDT401
p3862
aVLDT497
p3863
aVLDT496
p3864
asVGeography (GEOG)
p3865
(lp3866
VGEOG315
p3867
aVGEOG314
p3868
aVGEOG420
p3869
aVGEOG439
p3870
aVGEOG363
p3871
aVGEOG417
p3872
aVGEOG493
p3873
aVGEOG480
p3874
aVGEOG469
p3875
aVGEOG482
p3876
aVGEOG333
p3877
aVGEOG462
p3878
aVGEOG299
p3879
aVHIST003
p3880
aVGEOG444
p3881
aVGEOG110
p3882
aVSPLED462
p3883
aVGEOG123
p3884
aVGEOG397
p3885
aVGEOG130
p3886
aVGEOG124
p3887
aVGEOG479
p3888
asVUkrainian (UKR)
p3889
(lp3890
VBE467
p3891
aVUKR100
p3892
aVUKR494H
p3893
aVUKR197
p3894
aVUKR494
p3895
aVUKR001
p3896
aVUKR002
p3897
aVUKR003
p3898
asVRehabilitation and Human Services (RHS)
p3899
(lp3900
VRHS302
p3901
aVRHS496
p3902
aVRHS497
p3903
aVRHS300
p3904
aVRHS301
p3905
aVRHS410
p3906
aVRHS397
p3907
aVRHS402
p3908
aVRHS296
p3909
aVRHS297
p3910
aVRHS495
p3911
aVRHS495A
p3912
aVRHS401
p3913
aVRHS400
p3914
aVRHS403
p3915
aVRHS428
p3916
aVCOMM481
p3917
aVRHS420
p3918
aVRHS303
p3919
aVRHS100
p3920
asVJewish Studies (JST)
p3921
(lp3922
VJST494
p3923
aVJST495
p3924
aVJST151
p3925
aVJST153
p3926
aVJST410
p3927
aVJST113
p3928
aVCMAS466
p3929
aVJST160
p3930
aVPHYS251
p3931
aVJST439
p3932
aVJST120
p3933
aVJST104
p3934
aVJST116
p3935
aVJST102
p3936
aVJST261
p3937
aVJST434
p3938
aVJST106
p3939
aVJST140
p3940
aVJST427
p3941
aVJST425
p3942
aVJST199
p3943
aVJST132
p3944
asVHuman Development and Family Studies (HDFS)
p3945
(lp3946
VHDFS477
p3947
aVHDFS498
p3948
aVHDFS229H
p3949
aVHDFS312
p3950
aVHDFS490
p3951
aVHDFS218
p3952
aVHDFS416
p3953
aVHDFS415
p3954
aVHDFS302A
p3955
aVHDFS401
p3956
aVHDFS411
p3957
aVHDFS310
p3958
aVHDFS424
p3959
aVHDFS231
p3960
aVHDFS420
p3961
aVHDFS234
p3962
aVHDFS296
p3963
aVKINES304
p3964
aVHDFS495B
p3965
aVSPAN010
p3966
aVHDFS418
p3967
aVHDFS434
p3968
asVBiotechnology (BIOTC)
p3969
(lp3970
VBIOTC489
p3971
aVBIOTC479
p3972
aVBIOTC459
p3973
aVBIOTC416
p3974
aVBIOTC460
p3975
asVHealth -\u200b CA (HLTH)
p3976
(lp3977
VHLTH306
p3978
asVPolish (POL)
p3979
(lp3980
VPOL299
p3981
aVPOL199
p3982
aVPOL197
p3983
asVGlobal and International Studies (GLIS)
p3984
(lp3985
VGLIS497
p3986
aVGLIS102N
p3987
aVGLIS400
p3988
aVGLIS310
p3989
aVGLIS496
p3990
aVGLIS101N
p3991
asVEnglish (ENGL)
p3992
(lp3993
VDANCE261
p3994
aVENGL460
p3995
aVENGL457
p3996
aVENGL209
p3997
aVENGL453
p3998
aVENGL397
p3999
aVENGL136
p4000
aVENGL134
p4001
aVENGL245
p4002
aVENGL221H
p4003
aVENGL106
p4004
aVENGL211W
p4005
aVENGL140H
p4006
aVENGL227
p4007
aVENGL481
p4008
aVENGL493
p4009
aVENGL406M
p4010
aVENGL417
p4011
aVENGL419
p4012
aVENGL433H
p4013
aVENGL436
p4014
aVENGL189
p4015
asVHebrew (HEBR)
p4016
(lp4017
VHEBR295
p4018
aVHEBR297
p4019
aVHEBR296
p4020
aVHEBR001
p4021
aVHEBR002
p4022
aVHEBR010
p4023
aVHEBR401
p4024
aVHEBR402
p4025
aVEGEE497
p4026
aVHEBR497
p4027
aVHEBR399
p4028
aVHEBR494
p4029
aVHEBR496
p4030
aVHEBR099
p4031
aVHEBR003
p4032
aVHEBR199
p4033
aVHEBR152
p4034
aVHEBR452
p4035
aVHEBR451
p4036
aVHEBR151
p4037
aVHEBR494H
p4038
asVApplied Youth, Family and Community Education (AYFCE)
p4039
(lp4040
VAYFCE295
p4041
aVAYFCE297
p4042
aVAYFCE211N
p4043
aVAYFCE496
p4044
aVAYFCE270
p4045
aVAYFCE438
p4046
aVKINES296
p4047
aVAYFCE211S
p4048
aVAYFCE295B
p4049
aVAYFCE497
p4050
aVAYFCE455
p4051
aVAYFCE495
p4052
asVMeteorology (METEO)
p4053
(lp4054
VMETEO133N
p4055
aVMETEO498
p4056
aVMETEO473H
p4057
aVMETEO494
p4058
aVMETEO477
p4059
aVMETEO482
p4060
aVMETEO497A
p4061
aVMETEO122
p4062
aVMETEO440
p4063
aVMETEO480M
p4064
aVMETEO411
p4065
aVMETEO395
p4066
aVMETEO421
p4067
aVMETEO495E
p4068
aVMETEO436
p4069
aVMETEO004
p4070
aVMETEO005
p4071
aVMETEO300
p4072
aVMETEO241
p4073
aVMETEO361
p4074
asVHealth Policy and Administration (HPA)
p4075
(lp4076
VHPA295
p4077
aVHPA297
p4078
aVHPA401H
p4079
aVHPA475
p4080
aVHPA401
p4081
aVHPA410
p4082
aVHPA460
p4083
aVHPA420
p4084
aVHPA430
p4085
aVHPA433
p4086
aVHPA301H
p4087
aVHPA332H
p4088
aVHPA470
p4089
aVHPA440
p4090
aVHPA057
p4091
aVHPA494
p4092
aVHPA311
p4093
aVHPA310
p4094
aVHPA310H
p4095
aVHPA495
p4096
asVDance (DANCE)
p4097
(lp4098
VDANCE270
p4099
aVDANCE341
p4100
aVDANCE412
p4101
aVDANCE252
p4102
aVDANCE262
p4103
aVDANCE297
p4104
aVDANCE100
p4105
aVMTHED433
p4106
aVDANCE432
p4107
aVDANCE480
p4108
aVDANCE496
p4109
aVDANCE410
p4110
aVDANCE431
p4111
aVDANCE466
p4112
aVDANCE331
p4113
aVDANCE485
p4114
aVDANCE241
p4115
aVDANCE370
p4116
aVDANCE230
p4117
aVDANCE301
p4118
aVDANCE221
p4119
asVPublic Policy -\u200b CA (PUBPL)
p4120
(lp4121
VPUBPL495
p4122
aVPUBPL496
p4123
aVPUBPL497
p4124
aVPUBPL483
p4125
aVPUBPL305
p4126
aVPUBPL481
p4127
aVPUBPL490
p4128
aVPUBPL306
p4129
aVPLSC125
p4130
aVPUBPL485
p4131
aVPUBPL476
p4132
aVPUBPL475
p4133
aVPUBPL241
p4134
aVPUBPL201
p4135
aVPUBPL304
p4136
aVMUSIC458
p4137
aVPUBPL482
p4138
asVPortuguese (PORT)
p4139
(lp4140
VPORT397
p4141
aVPORT297
p4142
aVPORT299
p4143
aVPORT399
p4144
aVPORT001
p4145
aVPORT405
p4146
aVPORT497C
p4147
aVRLST478
p4148
aVPLSC490
p4149
aVPORT496A
p4150
aVPORT494H
p4151
aVPORT197
p4152
aVPORT002
p4153
aVPORT003
p4154
aVPORT053
p4155
aVPORT052
p4156
aVPORT051
p4157
aVPORT199
p4158
aVPORT497
p4159
aVPORT496
p4160
aVPORT494
p4161
asVEnvironmental Engineering (ENVE)
p4162
(lp4163
VENVE430
p4164
aVENVE301
p4165
aVENVE425
p4166
aVENVE424
p4167
aVENVE413
p4168
aVENVE411
p4169
aVENVE416
p4170
aVENVE417
p4171
aVENVE415
p4172
aVENVE401
p4173
aVENVE494H
p4174
aVENVE494
p4175
aVENVE470
p4176
aVMATSE426
p4177
aVENVE460
p4178
asVTurfgrass (TURF)
p4179
(lp4180
VTURF496
p4181
aVTURF495
p4182
aVTURF425
p4183
aVTURF307
p4184
aVTURF235
p4185
aVTURF490
p4186
aVTURF238
p4187
aVTURF489
p4188
aVTURF295
p4189
aVTURF100
p4190
aVTURF297
p4191
aVTURF230
p4192
aVART020H
p4193
aVTURF435
p4194
aVTURF434
p4195
aVTURF436
p4196
asVOrganizational Leadership (OLEAD)
p4197
(lp4198
VOLEAD465
p4199
aVOLEAD464
p4200
aVOLEAD210
p4201
aVWFED450
p4202
aVOLEAD495
p4203
aVOLEAD496
p4204
aVOLEAD410
p4205
aVOLEAD411
p4206
aVCRIMJ241
p4207
aVOLEAD409
p4208
aVOLEAD497A
p4209
aVOLEAD100
p4210
asVScience, Technology, and Society (STS)
p4211
(lp4212
VSTS150
p4213
aVSTS047
p4214
aVSTS151
p4215
aVSTS122
p4216
aVSTS124
p4217
aVSTS428
p4218
aVSTS100H
p4219
aVSTS055
p4220
aVSTS245
p4221
aVSTS197
p4222
aVSTS200S
p4223
aVSTS100
p4224
aVSTS107
p4225
aVSTS432
p4226
aVSTS105
p4227
aVSTS430
p4228
aVSTS200
p4229
aVSTS433
p4230
aVSTS460
p4231
aVSTS233
p4232
asVChinese (CHNS)
p4233
(lp4234
VART101
p4235
aVCHNS099
p4236
aVCHNS197
p4237
aVCHNS452
p4238
aVCHNS453
p4239
aVCHNS454
p4240
aVCHNS455
p4241
aVCHNS494H
p4242
aVCHNS399
p4243
aVCHNS418
p4244
aVCHNS419
p4245
aVCHNS414
p4246
aVCHNS121
p4247
aVCHNS001
p4248
aVCHNS417
p4249
aVCHNS403
p4250
aVCHNS412
p4251
aVCHNS120
p4252
aVCHNS496
p4253
aVCHNS410
p4254
aVCHNS110
p4255
asVAgricultural and Extension Education (AEE)
p4256
(lp4257
VAEE440
p4258
aVAEE450
p4259
aVAEE330
p4260
aVAEE201
p4261
aVAEE494
p4262
aVAEE360
p4263
aVAEE313
p4264
aVAEE495
p4265
aVAEE497
p4266
aVAEE434
p4267
aVAEE413
p4268
aVAEE460
p4269
aVAEE465
p4270
aVAEE400
p4271
aVAEE395
p4272
aVAEE296
p4273
aVAEE297
p4274
aVNURS498
p4275
aVAEE216
p4276
aVAEE100
p4277
aVAEE349
p4278
asVPhysics (PHYS)
p4279
(lp4280
VPHYS097
p4281
aVPHYS213L
p4282
aVPHYS250H
p4283
aVPHYS211H
p4284
aVPHYS444
p4285
aVPHYS299
p4286
aVPHYS001
p4287
aVPHYS214R
p4288
aVPHYS400H
p4289
aVPHYS250
p4290
aVPHYS237
p4291
aVPHYS296
p4292
aVPHYS410
p4293
aVPHYS400
p4294
aVPHYS413
p4295
aVPHYS001H
p4296
aVPHYS430
p4297
aVPHYS457W
p4298
aVPHYS421
p4299
aVPHYS297
p4300
aVWWNDS110
p4301
asVAgronomy (AGRO)
p4302
(lp4303
VAGRO028
p4304
aVAGRO410
p4305
aVAGRO438
p4306
aVAGRO425
p4307
aVAGRO423
p4308
aVAGRO460
p4309
aVAGRO496A
p4310
aVAGRO497
p4311
aVAGRO496
p4312
aVAGRO495
p4313
aVAGRO490
p4314
asVSurveying (SUR)
p4315
(lp4316
VSUR341
p4317
aVSUR422
p4318
aVSUR351
p4319
aVSUR262
p4320
aVSUR471
p4321
aVSUR297
p4322
aVSUR296
p4323
aVSUR111
p4324
aVSUR222
p4325
aVSUR313
p4326
aVSRA001
p4327
aVSUR212
p4328
aVGEOG320
p4329
aVSUR362
p4330
aVSUR497
p4331
aVSUR496
p4332
aVSUR381
p4333
aVSUR462
p4334
aVSUR441
p4335
aVSUR455
p4336
aVSUR162
p4337
aVSUR482
p4338
asVAfrican Studies (AFR)
p4339
(lp4340
VAFR399
p4341
aVAFR497
p4342
aVAFR310
p4343
aVAFR197
p4344
aVAFR192
p4345
aVBME423
p4346
aVAFR199
p4347
aVAFR440
p4348
aVAFR209
p4349
aVAFR150
p4350
aVAFR444
p4351
aVAFR454
p4352
aVAFR446
p4353
aVAFR459
p4354
aVAFR335
p4355
aVAFR464
p4356
aVAFR297
p4357
aVAFR105
p4358
aVAFR434
p4359
aVAFR299
p4360
aVAFR403
p4361
asVBusiness Law (BLAW)
p4362
(lp4363
VBLAW399
p4364
aVBLAW296
p4365
aVBLAW299
p4366
aVBLAW296A
p4367
aVBLAW425
p4368
aVBLAW424
p4369
aVBLAW243
p4370
aVBLAW446
p4371
aVBLAW496A
p4372
aVBLAW199
p4373
aVBLAW494H
p4374
aVBLAW496
p4375
aVBLAW497
p4376
aVBLAW494
p4377
aVBLAW441
p4378
aVBLAW498
p4379
aVBLAW445
p4380
aVBLAW444
p4381
aVBLAW447
p4382
aVBLAW341
p4383
as.